(dp0
S'2x1'
p1
(lp2
(dp3
S'A'
p4
(dp5
S'Z'
p6
(dp7
S'shape'
p8
c__builtin__
set
p9
((lp10
S'octagon'
p11
atp12
Rp13
sssS'ANSWER'
p14
(dp15
S'Z'
p16
(dp17
S'shape'
p18
g9
((lp19
S'triangle'
p20
atp21
Rp22
sssS'C'
p23
(dp24
S'Z'
p25
(dp26
S'shape'
p27
g9
((lp28
S'hexagon'
p29
atp30
Rp31
sssS'B'
p32
(dp33
S'Z'
p34
(dp35
S'shape'
p36
g9
((lp37
S'square'
p38
atp39
Rp40
sssa(dp41
g4
(dp42
S'Y'
p43
(dp44
S'shape'
p45
g9
((lp46
S'Pac-Man'
p47
atp48
Rp49
sS'angle'
p50
g9
((lp51
S'90'
p52
atp53
Rp54
ssS'Z'
p55
(dp56
S'left-of'
p57
g9
((lp58
S'Y'
p59
atp60
Rp61
sS'shape'
p62
g9
((lp63
S'Pac-Man'
p64
atp65
Rp66
sS'angle'
p67
g9
((lp68
S'270'
p69
atp70
Rp71
sssg14
(dp72
S'Y'
p73
(dp74
S'shape'
p75
g9
((lp76
S'Pac-Man'
p77
atp78
Rp79
sS'angle'
p80
g9
((lp81
S'0'
p82
atp83
Rp84
ssS'Z'
p85
(dp86
S'shape'
p87
g9
((lp88
S'Pac-Man'
p89
atp90
Rp91
sS'angle'
p92
g9
((lp93
S'180'
p94
atp95
Rp96
sS'above'
p97
g9
((lp98
g59
atp99
Rp100
sssg23
(dp101
S'Y'
p102
(dp103
S'shape'
p104
g9
((lp105
S'Pac-Man'
p106
atp107
Rp108
sS'angle'
p109
g9
((lp110
S'90'
p111
atp112
Rp113
ssS'Z'
p114
(dp115
S'left-of'
p116
g9
((lp117
g59
atp118
Rp119
sS'shape'
p120
g9
((lp121
S'Pac-Man'
p122
atp123
Rp124
sS'angle'
p125
g9
((lp126
S'90'
p127
atp128
Rp129
sssg32
(dp130
S'Y'
p131
(dp132
S'shape'
p133
g9
((lp134
S'Pac-Man'
p135
atp136
Rp137
sS'angle'
p138
g9
((lp139
S'180'
p140
atp141
Rp142
ssS'Z'
p143
(dp144
S'shape'
p145
g9
((lp146
S'Pac-Man'
p147
atp148
Rp149
sS'angle'
p150
g9
((lp151
g82
atp152
Rp153
sS'above'
p154
g9
((lp155
g59
atp156
Rp157
sssa(dp158
g4
(dp159
S'Y'
p160
(dp161
S'shape'
p162
g9
((lp163
S'triangle'
p164
atp165
Rp166
ssS'Z'
p167
(dp168
S'left-of'
p169
g9
((lp170
g59
atp171
Rp172
sS'shape'
p173
g9
((lp174
S'triangle'
p175
atp176
Rp177
sssg14
(dp178
S'Z'
p179
(dp180
S'shape'
p181
g9
((lp182
S'octagon'
p183
atp184
Rp185
sssg23
(dp186
S'Y'
p187
(dp188
S'shape'
p189
g9
((lp190
S'square'
p191
atp192
Rp193
ssS'Z'
p194
(dp195
S'left-of'
p196
g9
((lp197
g59
atp198
Rp199
sS'shape'
p200
g9
((lp201
S'square'
p202
atp203
Rp204
sssg32
(dp205
S'Z'
p206
(dp207
S'shape'
p208
g9
((lp209
S'hexagon'
p210
atp211
Rp212
sssa(dp213
g4
(dp214
S'U'
p215
(dp216
S'shape'
p217
g9
((lp218
S'septagon'
p219
atp220
Rp221
sS'above'
p222
g9
((lp223
S'T'
p224
atp225
Rp226
ssS'T'
p227
(dp228
S'shape'
p229
g9
((lp230
S'triangle'
p231
atp232
Rp233
ssS'W'
p234
(dp235
S'left-of'
p236
g9
((lp237
S'U'
p238
ag224
atp239
Rp240
sS'shape'
p241
g9
((lp242
S'circle'
p243
atp244
Rp245
sS'above'
p246
g9
((lp247
S'V'
p248
atp249
Rp250
ssS'V'
p251
(dp252
S'left-of'
p253
g9
((lp254
g238
ag224
atp255
Rp256
sS'shape'
p257
g9
((lp258
S'octagon'
p259
atp260
Rp261
ssS'Y'
p262
(dp263
S'left-of'
p264
g9
((lp265
S'X'
p266
ag238
ag224
aS'W'
p267
ag248
atp268
Rp269
sS'shape'
p270
g9
((lp271
S'square'
p272
atp273
Rp274
ssS'X'
p275
(dp276
S'left-of'
p277
g9
((lp278
g238
ag224
atp279
Rp280
sS'shape'
p281
g9
((lp282
S'pentagon'
p283
atp284
Rp285
sS'above'
p286
g9
((lp287
g267
ag248
atp288
Rp289
ssS'Z'
p290
(dp291
S'left-of'
p292
g9
((lp293
g266
ag238
ag224
ag267
ag248
atp294
Rp295
sS'shape'
p296
g9
((lp297
S'hexagon'
p298
atp299
Rp300
sS'above'
p301
g9
((lp302
g59
atp303
Rp304
sssg14
(dp305
S'U'
p306
(dp307
S'shape'
p308
g9
((lp309
S'hexagon'
p310
atp311
Rp312
sS'above'
p313
g9
((lp314
g224
atp315
Rp316
ssS'T'
p317
(dp318
S'shape'
p319
g9
((lp320
S'square'
p321
atp322
Rp323
ssS'W'
p324
(dp325
S'left-of'
p326
g9
((lp327
g238
ag224
atp328
Rp329
sS'shape'
p330
g9
((lp331
S'circle'
p332
atp333
Rp334
sS'above'
p335
g9
((lp336
g248
atp337
Rp338
ssS'V'
p339
(dp340
S'left-of'
p341
g9
((lp342
g238
ag224
atp343
Rp344
sS'shape'
p345
g9
((lp346
S'septagon'
p347
atp348
Rp349
ssS'Y'
p350
(dp351
S'left-of'
p352
g9
((lp353
g266
ag238
ag224
ag267
ag248
atp354
Rp355
sS'shape'
p356
g9
((lp357
S'pentagon'
p358
atp359
Rp360
ssS'X'
p361
(dp362
S'left-of'
p363
g9
((lp364
g238
ag224
atp365
Rp366
sS'shape'
p367
g9
((lp368
S'triangle'
p369
atp370
Rp371
sS'above'
p372
g9
((lp373
g267
ag248
atp374
Rp375
ssS'Z'
p376
(dp377
S'left-of'
p378
g9
((lp379
g266
ag238
ag224
ag267
ag248
atp380
Rp381
sS'shape'
p382
g9
((lp383
S'octagon'
p384
atp385
Rp386
sS'above'
p387
g9
((lp388
g59
atp389
Rp390
sssg23
(dp391
S'U'
p392
(dp393
S'shape'
p394
g9
((lp395
S'pentagon'
p396
atp397
Rp398
sS'above'
p399
g9
((lp400
g224
atp401
Rp402
ssS'T'
p403
(dp404
S'shape'
p405
g9
((lp406
S'octagon'
p407
atp408
Rp409
ssS'W'
p410
(dp411
S'left-of'
p412
g9
((lp413
g238
ag224
atp414
Rp415
sS'shape'
p416
g9
((lp417
S'circle'
p418
atp419
Rp420
sS'above'
p421
g9
((lp422
g248
atp423
Rp424
ssS'V'
p425
(dp426
S'left-of'
p427
g9
((lp428
g238
ag224
atp429
Rp430
sS'shape'
p431
g9
((lp432
S'triangle'
p433
atp434
Rp435
ssS'Y'
p436
(dp437
S'left-of'
p438
g9
((lp439
g266
ag238
ag224
ag267
ag248
atp440
Rp441
sS'shape'
p442
g9
((lp443
S'hexagon'
p444
atp445
Rp446
ssS'X'
p447
(dp448
S'left-of'
p449
g9
((lp450
g238
ag224
atp451
Rp452
sS'shape'
p453
g9
((lp454
S'septagon'
p455
atp456
Rp457
sS'above'
p458
g9
((lp459
g267
ag248
atp460
Rp461
ssS'Z'
p462
(dp463
S'left-of'
p464
g9
((lp465
g266
ag238
ag224
ag267
ag248
atp466
Rp467
sS'shape'
p468
g9
((lp469
S'square'
p470
atp471
Rp472
sS'above'
p473
g9
((lp474
g59
atp475
Rp476
sssg32
(dp477
S'U'
p478
(dp479
S'shape'
p480
g9
((lp481
S'square'
p482
atp483
Rp484
sS'above'
p485
g9
((lp486
g224
atp487
Rp488
ssS'T'
p489
(dp490
S'shape'
p491
g9
((lp492
S'hexagon'
p493
atp494
Rp495
ssS'W'
p496
(dp497
S'left-of'
p498
g9
((lp499
g238
ag224
atp500
Rp501
sS'shape'
p502
g9
((lp503
S'circle'
p504
atp505
Rp506
sS'above'
p507
g9
((lp508
g248
atp509
Rp510
ssS'V'
p511
(dp512
S'left-of'
p513
g9
((lp514
g238
ag224
atp515
Rp516
sS'shape'
p517
g9
((lp518
S'pentagon'
p519
atp520
Rp521
ssS'Y'
p522
(dp523
S'left-of'
p524
g9
((lp525
g266
ag238
ag224
ag267
ag248
atp526
Rp527
sS'shape'
p528
g9
((lp529
S'septagon'
p530
atp531
Rp532
ssS'X'
p533
(dp534
S'left-of'
p535
g9
((lp536
g238
ag224
atp537
Rp538
sS'shape'
p539
g9
((lp540
S'octagon'
p541
atp542
Rp543
sS'above'
p544
g9
((lp545
g267
ag248
atp546
Rp547
ssS'Z'
p548
(dp549
S'left-of'
p550
g9
((lp551
g266
ag238
ag224
ag267
ag248
atp552
Rp553
sS'shape'
p554
g9
((lp555
S'triangle'
p556
atp557
Rp558
sS'above'
p559
g9
((lp560
g59
atp561
Rp562
sssa(dp563
g4
(dp564
S'Y'
p565
(dp566
S'shape'
p567
g9
((lp568
S'triangle'
p569
atp570
Rp571
sS'angle'
p572
g9
((lp573
g82
atp574
Rp575
sS'above'
p576
g9
((lp577
g267
atp578
Rp579
ssS'X'
p580
(dp581
S'left-of'
p582
g9
((lp583
g267
atp584
Rp585
sS'shape'
p586
g9
((lp587
S'plus'
p588
atp589
Rp590
sS'angle'
p591
g9
((lp592
g82
atp593
Rp594
ssS'Z'
p595
(dp596
S'left-of'
p597
g9
((lp598
g59
atp599
Rp600
sS'shape'
p601
g9
((lp602
S'square'
p603
atp604
Rp605
sS'angle'
p606
g9
((lp607
g82
atp608
Rp609
sS'above'
p610
g9
((lp611
g266
atp612
Rp613
ssS'W'
p614
(dp615
S'shape'
p616
g9
((lp617
S'pentagon'
p618
atp619
Rp620
sS'angle'
p621
g9
((lp622
g82
atp623
Rp624
sssg14
(dp625
S'Y'
p626
(dp627
S'shape'
p628
g9
((lp629
S'circle'
p630
atp631
Rp632
sS'angle'
p633
g9
((lp634
S'180'
p635
atp636
Rp637
sS'above'
p638
g9
((lp639
g267
atp640
Rp641
ssS'X'
p642
(dp643
S'left-of'
p644
g9
((lp645
g267
atp646
Rp647
sS'shape'
p648
g9
((lp649
S'Pac-Man'
p650
atp651
Rp652
sS'angle'
p653
g9
((lp654
S'45'
p655
atp656
Rp657
ssS'Z'
p658
(dp659
S'left-of'
p660
g9
((lp661
g59
atp662
Rp663
sS'shape'
p664
g9
((lp665
S'octagon'
p666
atp667
Rp668
sS'angle'
p669
g9
((lp670
S'180'
p671
atp672
Rp673
sS'above'
p674
g9
((lp675
g266
atp676
Rp677
ssS'W'
p678
(dp679
S'shape'
p680
g9
((lp681
S'triangle'
p682
atp683
Rp684
sS'angle'
p685
g9
((lp686
S'135'
p687
atp688
Rp689
sssg23
(dp690
S'Y'
p691
(dp692
S'shape'
p693
g9
((lp694
S'triangle'
p695
atp696
Rp697
sS'angle'
p698
g9
((lp699
g82
atp700
Rp701
sS'above'
p702
g9
((lp703
g267
atp704
Rp705
ssS'X'
p706
(dp707
S'left-of'
p708
g9
((lp709
g267
atp710
Rp711
sS'shape'
p712
g9
((lp713
S'Pac-Man'
p714
atp715
Rp716
sS'angle'
p717
g9
((lp718
S'270'
p719
atp720
Rp721
ssS'Z'
p722
(dp723
S'left-of'
p724
g9
((lp725
g59
atp726
Rp727
sS'shape'
p728
g9
((lp729
S'circle'
p730
atp731
Rp732
sS'angle'
p733
g9
((lp734
g82
atp735
Rp736
sS'above'
p737
g9
((lp738
g266
atp739
Rp740
ssS'W'
p741
(dp742
S'shape'
p743
g9
((lp744
S'octagon'
p745
atp746
Rp747
sS'angle'
p748
g9
((lp749
g82
atp750
Rp751
sssg32
(dp752
S'Y'
p753
(dp754
S'left-of'
p755
g9
((lp756
S'Z'
p757
atp758
Rp759
sS'shape'
p760
g9
((lp761
S'triangle'
p762
atp763
Rp764
sS'angle'
p765
g9
((lp766
S'135'
p767
atp768
Rp769
sS'above'
p770
g9
((lp771
g266
atp772
Rp773
ssS'X'
p774
(dp775
S'left-of'
p776
g9
((lp777
g267
atp778
Rp779
sS'shape'
p780
g9
((lp781
S'square'
p782
atp783
Rp784
sS'angle'
p785
g9
((lp786
S'135'
p787
atp788
Rp789
ssS'Z'
p790
(dp791
S'shape'
p792
g9
((lp793
S'plus'
p794
atp795
Rp796
sS'angle'
p797
g9
((lp798
S'135'
p799
atp800
Rp801
sS'above'
p802
g9
((lp803
g267
atp804
Rp805
ssS'W'
p806
(dp807
S'shape'
p808
g9
((lp809
S'pentagon'
p810
atp811
Rp812
sS'angle'
p813
g9
((lp814
S'135'
p815
atp816
Rp817
sssa(dp818
g4
(dp819
S'Y'
p820
(dp821
S'shape'
p822
g9
((lp823
S'plus'
p824
atp825
Rp826
sS'above'
p827
g9
((lp828
g757
atp829
Rp830
sS'fill'
p831
g9
((lp832
S'no'
p833
atp834
Rp835
ssS'Z'
p836
(dp837
S'shape'
p838
g9
((lp839
S'plus'
p840
atp841
Rp842
sS'fill'
p843
g9
((lp844
S'no'
p845
atp846
Rp847
sssg14
(dp848
S'Y'
p849
(dp850
S'shape'
p851
g9
((lp852
S'square'
p853
atp854
Rp855
sS'angle'
p856
g9
((lp857
S'90'
p858
atp859
Rp860
sS'above'
p861
g9
((lp862
g757
atp863
Rp864
sS'fill'
p865
g9
((lp866
S'yes'
p867
atp868
Rp869
ssS'Z'
p870
(dp871
S'shape'
p872
g9
((lp873
S'square'
p874
atp875
Rp876
sS'angle'
p877
g9
((lp878
S'90'
p879
atp880
Rp881
sS'fill'
p882
g9
((lp883
S'no'
p884
atp885
Rp886
sssg23
(dp887
S'Y'
p888
(dp889
S'shape'
p890
g9
((lp891
S'square'
p892
atp893
Rp894
sS'above'
p895
g9
((lp896
g757
atp897
Rp898
sS'fill'
p899
g9
((lp900
S'no'
p901
atp902
Rp903
ssS'Z'
p904
(dp905
S'shape'
p906
g9
((lp907
S'square'
p908
atp909
Rp910
sS'fill'
p911
g9
((lp912
S'no'
p913
atp914
Rp915
sssg32
(dp916
S'Y'
p917
(dp918
S'shape'
p919
g9
((lp920
S'plus'
p921
atp922
Rp923
sS'above'
p924
g9
((lp925
g757
atp926
Rp927
sS'fill'
p928
g9
((lp929
S'yes'
p930
atp931
Rp932
ssS'Z'
p933
(dp934
S'shape'
p935
g9
((lp936
S'plus'
p937
atp938
Rp939
sS'fill'
p940
g9
((lp941
S'no'
p942
atp943
Rp944
sssa(dp945
g4
(dp946
S'Y'
p947
(dp948
S'shape'
p949
g9
((lp950
S'triangle'
p951
atp952
Rp953
ssS'Z'
p954
(dp955
S'left-of'
p956
g9
((lp957
g59
atp958
Rp959
sS'shape'
p960
g9
((lp961
S'triangle'
p962
atp963
Rp964
sssg14
(dp965
S'Z'
p966
(dp967
S'shape'
p968
g9
((lp969
S'heptagon'
p970
atp971
Rp972
sssg23
(dp973
S'Y'
p974
(dp975
S'shape'
p976
g9
((lp977
S'triangle'
p978
atp979
Rp980
ssS'Z'
p981
(dp982
S'left-of'
p983
g9
((lp984
g59
atp985
Rp986
sS'shape'
p987
g9
((lp988
S'square'
p989
atp990
Rp991
sssg32
(dp992
S'Z'
p993
(dp994
S'shape'
p995
g9
((lp996
S'hexagon'
p997
atp998
Rp999
sssasS'2x2'
p1000
(lp1001
(dp1002
g4
(dp1003
S'A'
p1004
(dp1005
S'shape'
p1006
g9
((lp1007
S'circle'
p1008
atp1009
Rp1010
sS'angle'
p1011
g9
((lp1012
g82
atp1013
Rp1014
sS'fill'
p1015
g9
((lp1016
S'no'
p1017
atp1018
Rp1019
sssg14
(dp1020
S'G'
p1021
(dp1022
S'shape'
p1023
g9
((lp1024
S'square'
p1025
atp1026
Rp1027
sS'angle'
p1028
g9
((lp1029
S'45'
p1030
atp1031
Rp1032
sS'fill'
p1033
g9
((lp1034
S'no'
p1035
atp1036
Rp1037
sssg23
(dp1038
S'C'
p1039
(dp1040
S'shape'
p1041
g9
((lp1042
S'circle'
p1043
atp1044
Rp1045
sS'angle'
p1046
g9
((lp1047
g82
atp1048
Rp1049
sS'fill'
p1050
g9
((lp1051
S'no'
p1052
atp1053
Rp1054
sssg32
(dp1055
S'B'
p1056
(dp1057
S'shape'
p1058
g9
((lp1059
S'square'
p1060
atp1061
Rp1062
sS'angle'
p1063
g9
((lp1064
g82
atp1065
Rp1066
sS'fill'
p1067
g9
((lp1068
S'no'
p1069
atp1070
Rp1071
sssa(dp1072
g4
(dp1073
S'A'
p1074
(dp1075
S'left-of'
p1076
g9
((lp1077
g23
ag32
atp1078
Rp1079
sS'shape'
p1080
g9
((lp1081
S'circle'
p1082
atp1083
Rp1084
sS'fill'
p1085
g9
((lp1086
S'no'
p1087
atp1088
Rp1089
ssS'C'
p1090
(dp1091
S'shape'
p1092
g9
((lp1093
S'square'
p1094
atp1095
Rp1096
sS'fill'
p1097
g9
((lp1098
S'no'
p1099
atp1100
Rp1101
ssS'B'
p1102
(dp1103
S'left-of'
p1104
g9
((lp1105
g23
atp1106
Rp1107
sS'shape'
p1108
g9
((lp1109
S'triangle'
p1110
atp1111
Rp1112
sS'fill'
p1113
g9
((lp1114
S'no'
p1115
atp1116
Rp1117
sssg14
(dp1118
S'Y'
p1119
(dp1120
S'left-of'
p1121
g9
((lp1122
S'1'
p1123
ag757
atp1124
Rp1125
sS'shape'
p1126
g9
((lp1127
S'square'
p1128
atp1129
Rp1130
sS'fill'
p1131
g9
((lp1132
S'yes'
p1133
atp1134
Rp1135
ssS'1'
p1136
(dp1137
S'shape'
p1138
g9
((lp1139
S'circle'
p1140
atp1141
Rp1142
sS'fill'
p1143
g9
((lp1144
S'yes'
p1145
atp1146
Rp1147
ssS'Z'
p1148
(dp1149
S'left-of'
p1150
g9
((lp1151
g1123
atp1152
Rp1153
sS'shape'
p1154
g9
((lp1155
S'triangle'
p1156
atp1157
Rp1158
sS'fill'
p1159
g9
((lp1160
S'no'
p1161
atp1162
Rp1163
sssg23
(dp1164
S'I'
p1165
(dp1166
S'shape'
p1167
g9
((lp1168
S'square'
p1169
atp1170
Rp1171
sS'fill'
p1172
g9
((lp1173
S'no'
p1174
atp1175
Rp1176
ssS'H'
p1177
(dp1178
S'left-of'
p1179
g9
((lp1180
S'I'
p1181
atp1182
Rp1183
sS'shape'
p1184
g9
((lp1185
S'triangle'
p1186
atp1187
Rp1188
sS'fill'
p1189
g9
((lp1190
S'no'
p1191
atp1192
Rp1193
ssS'G'
p1194
(dp1195
S'left-of'
p1196
g9
((lp1197
g1181
aS'H'
p1198
atp1199
Rp1200
sS'shape'
p1201
g9
((lp1202
S'circle'
p1203
atp1204
Rp1205
sS'fill'
p1206
g9
((lp1207
S'yes'
p1208
atp1209
Rp1210
sssg32
(dp1211
S'E'
p1212
(dp1213
S'left-of'
p1214
g9
((lp1215
S'F'
p1216
atp1217
Rp1218
sS'shape'
p1219
g9
((lp1220
S'triangle'
p1221
atp1222
Rp1223
sS'fill'
p1224
g9
((lp1225
S'no'
p1226
atp1227
Rp1228
ssS'D'
p1229
(dp1230
S'left-of'
p1231
g9
((lp1232
S'E'
p1233
ag1216
atp1234
Rp1235
sS'shape'
p1236
g9
((lp1237
S'square'
p1238
atp1239
Rp1240
sS'fill'
p1241
g9
((lp1242
S'no'
p1243
atp1244
Rp1245
ssS'F'
p1246
(dp1247
S'shape'
p1248
g9
((lp1249
S'circle'
p1250
atp1251
Rp1252
sS'fill'
p1253
g9
((lp1254
S'no'
p1255
atp1256
Rp1257
sssa(dp1258
g4
(dp1259
S'A'
p1260
(dp1261
S'shape'
p1262
g9
((lp1263
S'square'
p1264
atp1265
Rp1266
sS'size'
p1267
g9
((lp1268
S'very-large'
p1269
atp1270
Rp1271
sS'fill'
p1272
g9
((lp1273
S'no'
p1274
atp1275
Rp1276
ssS'C'
p1277
(dp1278
S'shape'
p1279
g9
((lp1280
S'square'
p1281
atp1282
Rp1283
sS'size'
p1284
g9
((lp1285
S'medium'
p1286
atp1287
Rp1288
sS'inside'
p1289
g9
((lp1290
g4
ag32
atp1291
Rp1292
sS'fill'
p1293
g9
((lp1294
S'no'
p1295
atp1296
Rp1297
ssS'B'
p1298
(dp1299
S'shape'
p1300
g9
((lp1301
S'square'
p1302
atp1303
Rp1304
sS'size'
p1305
g9
((lp1306
S'large'
p1307
atp1308
Rp1309
sS'inside'
p1310
g9
((lp1311
g4
atp1312
Rp1313
sS'fill'
p1314
g9
((lp1315
S'no'
p1316
atp1317
Rp1318
ssS'E'
p1319
(dp1320
S'shape'
p1321
g9
((lp1322
S'square'
p1323
atp1324
Rp1325
sS'size'
p1326
g9
((lp1327
S'very-small'
p1328
atp1329
Rp1330
sS'inside'
p1331
g9
((lp1332
g4
ag23
ag32
aS'D'
p1333
atp1334
Rp1335
sS'fill'
p1336
g9
((lp1337
S'no'
p1338
atp1339
Rp1340
ssS'D'
p1341
(dp1342
S'shape'
p1343
g9
((lp1344
S'square'
p1345
atp1346
Rp1347
sS'size'
p1348
g9
((lp1349
S'small'
p1350
atp1351
Rp1352
sS'inside'
p1353
g9
((lp1354
g4
ag23
ag32
atp1355
Rp1356
sS'fill'
p1357
g9
((lp1358
S'no'
p1359
atp1360
Rp1361
sssg14
(dp1362
S'V'
p1363
(dp1364
S'shape'
p1365
g9
((lp1366
S'square'
p1367
atp1368
Rp1369
sS'size'
p1370
g9
((lp1371
S'very-large'
p1372
atp1373
Rp1374
sS'fill'
p1375
g9
((lp1376
S'yes'
p1377
atp1378
Rp1379
sssg23
(dp1380
S'K'
p1381
(dp1382
S'shape'
p1383
g9
((lp1384
S'square'
p1385
atp1386
Rp1387
sS'size'
p1388
g9
((lp1389
S'very-large'
p1390
atp1391
Rp1392
sS'fill'
p1393
g9
((lp1394
S'no'
p1395
atp1396
Rp1397
ssS'M'
p1398
(dp1399
S'shape'
p1400
g9
((lp1401
S'square'
p1402
atp1403
Rp1404
sS'size'
p1405
g9
((lp1406
S'very-small'
p1407
atp1408
Rp1409
sS'inside'
p1410
g9
((lp1411
S'K'
p1412
aS'L'
p1413
atp1414
Rp1415
sS'fill'
p1416
g9
((lp1417
S'no'
p1418
atp1419
Rp1420
ssS'L'
p1421
(dp1422
S'shape'
p1423
g9
((lp1424
S'square'
p1425
atp1426
Rp1427
sS'size'
p1428
g9
((lp1429
S'medium'
p1430
atp1431
Rp1432
sS'inside'
p1433
g9
((lp1434
g1412
atp1435
Rp1436
sS'fill'
p1437
g9
((lp1438
S'no'
p1439
atp1440
Rp1441
sssg32
(dp1442
S'I'
p1443
(dp1444
S'shape'
p1445
g9
((lp1446
S'square'
p1447
atp1448
Rp1449
sS'size'
p1450
g9
((lp1451
S'small'
p1452
atp1453
Rp1454
sS'inside'
p1455
g9
((lp1456
g1198
aS'G'
p1457
ag1216
atp1458
Rp1459
sS'fill'
p1460
g9
((lp1461
S'no'
p1462
atp1463
Rp1464
ssS'H'
p1465
(dp1466
S'shape'
p1467
g9
((lp1468
S'square'
p1469
atp1470
Rp1471
sS'size'
p1472
g9
((lp1473
S'medium'
p1474
atp1475
Rp1476
sS'inside'
p1477
g9
((lp1478
g1457
ag1216
atp1479
Rp1480
sS'fill'
p1481
g9
((lp1482
S'yes'
p1483
atp1484
Rp1485
ssS'J'
p1486
(dp1487
S'shape'
p1488
g9
((lp1489
S'square'
p1490
atp1491
Rp1492
sS'size'
p1493
g9
((lp1494
S'very-small'
p1495
atp1496
Rp1497
sS'inside'
p1498
g9
((lp1499
g1181
ag1198
ag1457
ag1216
atp1500
Rp1501
sS'fill'
p1502
g9
((lp1503
S'yes'
p1504
atp1505
Rp1506
ssS'G'
p1507
(dp1508
S'shape'
p1509
g9
((lp1510
S'square'
p1511
atp1512
Rp1513
sS'size'
p1514
g9
((lp1515
S'large'
p1516
atp1517
Rp1518
sS'inside'
p1519
g9
((lp1520
g1216
atp1521
Rp1522
sS'fill'
p1523
g9
((lp1524
S'no'
p1525
atp1526
Rp1527
ssS'F'
p1528
(dp1529
S'shape'
p1530
g9
((lp1531
S'square'
p1532
atp1533
Rp1534
sS'size'
p1535
g9
((lp1536
S'very-large'
p1537
atp1538
Rp1539
sS'fill'
p1540
g9
((lp1541
S'yes'
p1542
atp1543
Rp1544
sssa(dp1545
g4
(dp1546
S'A'
p1547
(dp1548
S'shape'
p1549
g9
((lp1550
S'half-arrow'
p1551
atp1552
Rp1553
sS'angle'
p1554
g9
((lp1555
g82
atp1556
Rp1557
sS'vertical-flip'
p1558
g9
((lp1559
S'no'
p1560
atp1561
Rp1562
sssg14
(dp1563
S'H'
p1564
(dp1565
S'shape'
p1566
g9
((lp1567
S'half-arrow'
p1568
atp1569
Rp1570
sS'angle'
p1571
g9
((lp1572
S'180'
p1573
atp1574
Rp1575
sS'vertical-flip'
p1576
g9
((lp1577
S'no'
p1578
atp1579
Rp1580
sssg23
(dp1581
S'C'
p1582
(dp1583
S'shape'
p1584
g9
((lp1585
S'half-arrow'
p1586
atp1587
Rp1588
sS'angle'
p1589
g9
((lp1590
g82
atp1591
Rp1592
sS'vertical-flip'
p1593
g9
((lp1594
S'yes'
p1595
atp1596
Rp1597
sssg32
(dp1598
S'B'
p1599
(dp1600
S'shape'
p1601
g9
((lp1602
S'half-arrow'
p1603
atp1604
Rp1605
sS'angle'
p1606
g9
((lp1607
S'180'
p1608
atp1609
Rp1610
sS'vertical-flip'
p1611
g9
((lp1612
S'yes'
p1613
atp1614
Rp1615
sssa(dp1616
g4
(dp1617
S'A'
p1618
(dp1619
S'shape'
p1620
g9
((lp1621
S'triangle'
p1622
atp1623
Rp1624
sssg14
(dp1625
S'G'
p1626
(dp1627
S'shape'
p1628
g9
((lp1629
S'hexagon'
p1630
atp1631
Rp1632
sssg23
(dp1633
S'C'
p1634
(dp1635
S'shape'
p1636
g9
((lp1637
S'pentagon'
p1638
atp1639
Rp1640
sssg32
(dp1641
S'B'
p1642
(dp1643
S'shape'
p1644
g9
((lp1645
S'square'
p1646
atp1647
Rp1648
sssa(dp1649
g4
(dp1650
S'A'
p1651
(dp1652
S'shape'
p1653
g9
((lp1654
S'square'
p1655
atp1656
Rp1657
sssg14
(dp1658
S'E'
p1659
(dp1660
S'shape'
p1661
g9
((lp1662
S'square'
p1663
atp1664
Rp1665
sssg23
(dp1666
S'C'
p1667
(dp1668
S'shape'
p1669
g9
((lp1670
S'triangle'
p1671
atp1672
Rp1673
sssg32
(dp1674
S'B'
p1675
(dp1676
S'shape'
p1677
g9
((lp1678
S'pentagon'
p1679
atp1680
Rp1681
sssa(dp1682
S'A'
p1683
(dp1684
S'A'
p1685
(dp1686
S'shape'
p1687
g9
((lp1688
S'pentagon'
p1689
atp1690
Rp1691
sS'angle'
p1692
g9
((lp1693
S'0'
p1694
atp1695
Rp1696
sssS'ANSWER'
p1697
(dp1698
S'D'
p1699
(dp1700
S'shape'
p1701
g9
((lp1702
S'octagon'
p1703
atp1704
Rp1705
sS'angle'
p1706
g9
((lp1707
g1694
atp1708
Rp1709
sssS'C'
p1710
(dp1711
S'C'
p1712
(dp1713
S'shape'
p1714
g9
((lp1715
S'octagon'
p1716
atp1717
Rp1718
sS'angle'
p1719
g9
((lp1720
g1694
atp1721
Rp1722
sssS'B'
p1723
(dp1724
S'B'
p1725
(dp1726
S'shape'
p1727
g9
((lp1728
S'pentagon'
p1729
atp1730
Rp1731
sS'angle'
p1732
g9
((lp1733
S'90'
p1734
atp1735
Rp1736
sssasS'2x1 (Image)'
p1737
(lp1738
(dp1739
S'A'
p1740
(dp1741
S'S_0'
p1742
(dp1743
S'shape'
p1744
g9
((lp1745
S'square'
p1746
atp1747
Rp1748
sS'size'
p1749
g9
((lp1750
S'2'
p1751
atp1752
Rp1753
sS'angle'
p1754
g9
((lp1755
S'45'
p1756
atp1757
Rp1758
sS'fill'
p1759
g9
((lp1760
S'no'
p1761
atp1762
Rp1763
sssS'ANSWER'
p1764
(dp1765
S'S_1'
p1766
(dp1767
g1744
g9
((lp1768
S'triangle'
p1769
atp1770
Rp1771
sg1749
g9
((lp1772
g1751
atp1773
Rp1774
sg1754
g9
((lp1775
S'0'
p1776
atp1777
Rp1778
sS'inside'
p1779
g9
((lp1780
S'S_0'
p1781
atp1782
Rp1783
sg1759
g9
((lp1784
g1761
atp1785
Rp1786
ssS'S_0'
p1787
(dp1788
g1744
g9
((lp1789
S'plus'
p1790
atp1791
Rp1792
sg1749
g9
((lp1793
S'1'
p1794
atp1795
Rp1796
sg1754
g9
((lp1797
g1776
atp1798
Rp1799
sg1759
g9
((lp1800
S'yes'
p1801
atp1802
Rp1803
ssS'S_2'
p1804
(dp1805
g1744
g9
((lp1806
g1790
atp1807
Rp1808
sg1749
g9
((lp1809
g1776
atp1810
Rp1811
sg1754
g9
((lp1812
g1776
atp1813
Rp1814
sg1779
g9
((lp1815
S'S_1'
p1816
aS'S_0'
p1817
atp1818
Rp1819
sg1759
g9
((lp1820
g1761
atp1821
Rp1822
sssS'C'
p1823
(dp1824
S'S_0'
p1825
(dp1826
g1744
g9
((lp1827
g1769
atp1828
Rp1829
sg1749
g9
((lp1830
S'3'
p1831
atp1832
Rp1833
sg1754
g9
((lp1834
g1776
atp1835
Rp1836
sg1759
g9
((lp1837
g1761
atp1838
Rp1839
sssS'B'
p1840
(dp1841
S'S_1'
p1842
(dp1843
g1744
g9
((lp1844
g1769
atp1845
Rp1846
sg1749
g9
((lp1847
g1776
atp1848
Rp1849
sg1754
g9
((lp1850
g1776
atp1851
Rp1852
sg1779
g9
((lp1853
S'S_0'
p1854
atp1855
Rp1856
sg1759
g9
((lp1857
g1761
atp1858
Rp1859
ssS'S_0'
p1860
(dp1861
g1744
g9
((lp1862
g1746
atp1863
Rp1864
sg1749
g9
((lp1865
g1794
atp1866
Rp1867
sg1754
g9
((lp1868
g1776
atp1869
Rp1870
sg1759
g9
((lp1871
g1761
atp1872
Rp1873
sssa(dp1874
g1740
(dp1875
S'S_0'
p1876
(dp1877
g1744
g9
((lp1878
S'Pac-Man'
p1879
atp1880
Rp1881
sg1749
g9
((lp1882
g1776
atp1883
Rp1884
sg1754
g9
((lp1885
S'225'
p1886
atp1887
Rp1888
sg1759
g9
((lp1889
g1761
atp1890
Rp1891
sssg1764
(dp1892
S'S_0'
p1893
(dp1894
g1744
g9
((lp1895
g1746
atp1896
Rp1897
sg1749
g9
((lp1898
g1751
atp1899
Rp1900
sg1754
g9
((lp1901
g1776
atp1902
Rp1903
sg1759
g9
((lp1904
g1801
atp1905
Rp1906
sssg1823
(dp1907
S'S_0'
p1908
(dp1909
g1744
g9
((lp1910
g1746
atp1911
Rp1912
sg1749
g9
((lp1913
g1776
atp1914
Rp1915
sg1754
g9
((lp1916
g1776
atp1917
Rp1918
sg1759
g9
((lp1919
g1761
atp1920
Rp1921
sssg1840
(dp1922
S'S_0'
p1923
(dp1924
g1744
g9
((lp1925
g1746
atp1926
Rp1927
sg1749
g9
((lp1928
g1794
atp1929
Rp1930
sg1754
g9
((lp1931
g1776
atp1932
Rp1933
sg1759
g9
((lp1934
g1761
atp1935
Rp1936
sssa(dp1937
g1740
(dp1938
S'S_1'
p1939
(dp1940
S'left-of'
p1941
g9
((lp1942
S'S_0'
p1943
atp1944
Rp1945
sg1744
g9
((lp1946
S'circle'
p1947
atp1948
Rp1949
sg1749
g9
((lp1950
g1831
atp1951
Rp1952
sg1754
g9
((lp1953
g1776
atp1954
Rp1955
sg1759
g9
((lp1956
g1801
atp1957
Rp1958
ssS'S_0'
p1959
(dp1960
g1744
g9
((lp1961
g1746
atp1962
Rp1963
sg1749
g9
((lp1964
g1776
atp1965
Rp1966
sg1754
g9
((lp1967
g1776
atp1968
Rp1969
sg1759
g9
((lp1970
g1761
atp1971
Rp1972
ssS'S_3'
p1973
(dp1974
g1754
g9
((lp1975
g1776
atp1976
Rp1977
sg1779
g9
((lp1978
S'S_1'
p1979
atp1980
Rp1981
sg1941
g9
((lp1982
S'S_0'
p1983
atp1984
Rp1985
sg1744
g9
((lp1986
g1769
atp1987
Rp1988
sg1759
g9
((lp1989
g1761
atp1990
Rp1991
sg1749
g9
((lp1992
g1776
atp1993
Rp1994
ssS'S_2'
p1995
(dp1996
g1754
g9
((lp1997
g1776
atp1998
Rp1999
sg1779
g9
((lp2000
S'S_1'
p2001
atp2002
Rp2003
sg1941
g9
((lp2004
S'S_0'
p2005
atp2006
Rp2007
sg1744
g9
((lp2008
g1947
atp2009
Rp2010
sg1759
g9
((lp2011
g1761
atp2012
Rp2013
sg1749
g9
((lp2014
g1794
atp2015
Rp2016
ssS'S_4'
p2017
(dp2018
g1754
g9
((lp2019
g1776
atp2020
Rp2021
sg1779
g9
((lp2022
S'S_1'
p2023
atp2024
Rp2025
sg1941
g9
((lp2026
S'S_0'
p2027
atp2028
Rp2029
sg1744
g9
((lp2030
g1947
atp2031
Rp2032
sg1759
g9
((lp2033
g1761
atp2034
Rp2035
sg1749
g9
((lp2036
g1751
atp2037
Rp2038
sssg1764
(dp2039
S'S_1'
p2040
(dp2041
g1744
g9
((lp2042
g1947
atp2043
Rp2044
sg1749
g9
((lp2045
g1751
atp2046
Rp2047
sg1754
g9
((lp2048
g1776
atp2049
Rp2050
sg1779
g9
((lp2051
S'S_0'
p2052
atp2053
Rp2054
sg1759
g9
((lp2055
g1761
atp2056
Rp2057
ssS'S_0'
p2058
(dp2059
g1744
g9
((lp2060
g1947
atp2061
Rp2062
sg1749
g9
((lp2063
g1831
atp2064
Rp2065
sg1754
g9
((lp2066
g1776
atp2067
Rp2068
sg1759
g9
((lp2069
g1761
atp2070
Rp2071
ssS'S_2'
p2072
(dp2073
g1941
g9
((lp2074
S'S_1'
p2075
aS'S_0'
p2076
atp2077
Rp2078
sg1744
g9
((lp2079
g1746
atp2080
Rp2081
sg1749
g9
((lp2082
g1776
atp2083
Rp2084
sg1754
g9
((lp2085
g1776
atp2086
Rp2087
sg1759
g9
((lp2088
g1761
atp2089
Rp2090
sssg1823
(dp2091
S'S_1'
p2092
(dp2093
g1941
g9
((lp2094
S'S_0'
p2095
atp2096
Rp2097
sg1744
g9
((lp2098
g1746
atp2099
Rp2100
sg1749
g9
((lp2101
g1776
atp2102
Rp2103
sg1754
g9
((lp2104
g1776
atp2105
Rp2106
sg1759
g9
((lp2107
g1761
atp2108
Rp2109
ssS'S_0'
p2110
(dp2111
g1744
g9
((lp2112
g1947
atp2113
Rp2114
sg1749
g9
((lp2115
g1831
atp2116
Rp2117
sg1754
g9
((lp2118
g1776
atp2119
Rp2120
sg1759
g9
((lp2121
g1761
atp2122
Rp2123
ssS'S_2'
p2124
(dp2125
g1754
g9
((lp2126
g1776
atp2127
Rp2128
sg1779
g9
((lp2129
S'S_1'
p2130
atp2131
Rp2132
sg1941
g9
((lp2133
S'S_0'
p2134
atp2135
Rp2136
sg1744
g9
((lp2137
g1947
atp2138
Rp2139
sg1759
g9
((lp2140
g1761
atp2141
Rp2142
sg1749
g9
((lp2143
g1751
atp2144
Rp2145
sssg1840
(dp2146
S'S_1'
p2147
(dp2148
g1744
g9
((lp2149
g1769
atp2150
Rp2151
sg1749
g9
((lp2152
g1776
atp2153
Rp2154
sg1754
g9
((lp2155
g1776
atp2156
Rp2157
sg1779
g9
((lp2158
S'S_0'
p2159
atp2160
Rp2161
sg1759
g9
((lp2162
g1761
atp2163
Rp2164
ssS'S_0'
p2165
(dp2166
g1744
g9
((lp2167
g1746
atp2168
Rp2169
sg1749
g9
((lp2170
g1776
atp2171
Rp2172
sg1754
g9
((lp2173
g1776
atp2174
Rp2175
sg1759
g9
((lp2176
g1761
atp2177
Rp2178
ssS'S_2'
p2179
(dp2180
g1941
g9
((lp2181
S'S_1'
p2182
aS'S_0'
p2183
atp2184
Rp2185
sg1744
g9
((lp2186
g1947
atp2187
Rp2188
sg1749
g9
((lp2189
g1831
atp2190
Rp2191
sg1754
g9
((lp2192
g1776
atp2193
Rp2194
sg1759
g9
((lp2195
g1761
atp2196
Rp2197
sssa(dp2198
g1740
(dp2199
S'S_1'
p2200
(dp2201
g1744
g9
((lp2202
g1769
atp2203
Rp2204
sg1749
g9
((lp2205
g1776
atp2206
Rp2207
sg1754
g9
((lp2208
g1776
atp2209
Rp2210
sg1759
g9
((lp2211
g1761
atp2212
Rp2213
ssS'S_0'
p2214
(dp2215
g1941
g9
((lp2216
S'S_1'
p2217
aS'S_4'
p2218
atp2219
Rp2220
sg1744
g9
((lp2221
g1947
atp2222
Rp2223
sg1749
g9
((lp2224
g1776
atp2225
Rp2226
sg1754
g9
((lp2227
g1776
atp2228
Rp2229
sg1759
g9
((lp2230
g1761
atp2231
Rp2232
ssS'S_3'
p2233
(dp2234
g1754
g9
((lp2235
g1776
atp2236
Rp2237
sg1941
g9
((lp2238
S'S_1'
p2239
aS'S_4'
p2240
atp2241
Rp2242
sg1744
g9
((lp2243
g1947
atp2244
Rp2245
sS'above'
p2246
g9
((lp2247
S'S_0'
p2248
atp2249
Rp2250
sg1759
g9
((lp2251
g1761
atp2252
Rp2253
sg1749
g9
((lp2254
g1776
atp2255
Rp2256
ssS'S_2'
p2257
(dp2258
g1941
g9
((lp2259
S'S_1'
p2260
aS'S_0'
p2261
aS'S_3'
p2262
aS'S_4'
p2263
aS'S_7'
p2264
atp2265
Rp2266
sg1744
g9
((lp2267
g1746
atp2268
Rp2269
sg1749
g9
((lp2270
g1776
atp2271
Rp2272
sg1754
g9
((lp2273
g1776
atp2274
Rp2275
sg1759
g9
((lp2276
g1761
atp2277
Rp2278
ssS'S_5'
p2279
(dp2280
g1754
g9
((lp2281
g1776
atp2282
Rp2283
sg1941
g9
((lp2284
S'S_1'
p2285
aS'S_0'
p2286
aS'S_3'
p2287
aS'S_4'
p2288
aS'S_7'
p2289
atp2290
Rp2291
sg1744
g9
((lp2292
g1947
atp2293
Rp2294
sg2246
g9
((lp2295
S'S_1'
p2296
aS'S_0'
p2297
aS'S_2'
p2298
atp2299
Rp2300
sg1759
g9
((lp2301
g1801
atp2302
Rp2303
sg1749
g9
((lp2304
g1794
atp2305
Rp2306
ssS'S_4'
p2307
(dp2308
g1744
g9
((lp2309
g1947
atp2310
Rp2311
sg1749
g9
((lp2312
g1776
atp2313
Rp2314
sg1754
g9
((lp2315
g1776
atp2316
Rp2317
sg2246
g9
((lp2318
S'S_1'
p2319
aS'S_0'
p2320
aS'S_2'
p2321
atp2322
Rp2323
sg1759
g9
((lp2324
g1761
atp2325
Rp2326
ssS'S_7'
p2327
(dp2328
g1754
g9
((lp2329
g1776
atp2330
Rp2331
sg1941
g9
((lp2332
S'S_1'
p2333
aS'S_4'
p2334
atp2335
Rp2336
sg1744
g9
((lp2337
g1947
atp2338
Rp2339
sg2246
g9
((lp2340
S'S_1'
p2341
aS'S_0'
p2342
aS'S_3'
p2343
aS'S_2'
p2344
atp2345
Rp2346
sg1759
g9
((lp2347
g1761
atp2348
Rp2349
sg1749
g9
((lp2350
g1776
atp2351
Rp2352
ssS'S_6'
p2353
(dp2354
g1754
g9
((lp2355
g1756
atp2356
Rp2357
sg1779
g9
((lp2358
S'S_5'
p2359
atp2360
Rp2361
sg1941
g9
((lp2362
S'S_1'
p2363
aS'S_0'
p2364
aS'S_3'
p2365
aS'S_4'
p2366
aS'S_7'
p2367
atp2368
Rp2369
sg1744
g9
((lp2370
g1746
atp2371
Rp2372
sg2246
g9
((lp2373
S'S_1'
p2374
aS'S_0'
p2375
aS'S_2'
p2376
atp2377
Rp2378
sg1759
g9
((lp2379
g1761
atp2380
Rp2381
sg1749
g9
((lp2382
g1776
atp2383
Rp2384
sssg1764
(dp2385
S'S_1'
p2386
(dp2387
g1744
g9
((lp2388
g1746
atp2389
Rp2390
sg1749
g9
((lp2391
g1776
atp2392
Rp2393
sg1754
g9
((lp2394
g1776
atp2395
Rp2396
sg1759
g9
((lp2397
g1761
atp2398
Rp2399
ssS'S_0'
p2400
(dp2401
g1941
g9
((lp2402
S'S_1'
p2403
aS'S_4'
p2404
atp2405
Rp2406
sg1744
g9
((lp2407
g1947
atp2408
Rp2409
sg1749
g9
((lp2410
g1776
atp2411
Rp2412
sg1754
g9
((lp2413
g1776
atp2414
Rp2415
sg1759
g9
((lp2416
g1761
atp2417
Rp2418
ssS'S_3'
p2419
(dp2420
g1754
g9
((lp2421
g1776
atp2422
Rp2423
sg1941
g9
((lp2424
S'S_1'
p2425
aS'S_4'
p2426
atp2427
Rp2428
sg1744
g9
((lp2429
g1947
atp2430
Rp2431
sg2246
g9
((lp2432
S'S_0'
p2433
atp2434
Rp2435
sg1759
g9
((lp2436
g1761
atp2437
Rp2438
sg1749
g9
((lp2439
g1776
atp2440
Rp2441
ssS'S_2'
p2442
(dp2443
g1941
g9
((lp2444
S'S_1'
p2445
aS'S_0'
p2446
aS'S_3'
p2447
aS'S_4'
p2448
aS'S_6'
p2449
atp2450
Rp2451
sg1744
g9
((lp2452
g1947
atp2453
Rp2454
sg1749
g9
((lp2455
g1776
atp2456
Rp2457
sg1754
g9
((lp2458
g1776
atp2459
Rp2460
sg1759
g9
((lp2461
g1761
atp2462
Rp2463
ssS'S_5'
p2464
(dp2465
g1754
g9
((lp2466
g1776
atp2467
Rp2468
sg1941
g9
((lp2469
S'S_1'
p2470
aS'S_0'
p2471
aS'S_3'
p2472
aS'S_4'
p2473
aS'S_6'
p2474
atp2475
Rp2476
sg1744
g9
((lp2477
g1746
atp2478
Rp2479
sg2246
g9
((lp2480
S'S_1'
p2481
aS'S_0'
p2482
aS'S_2'
p2483
atp2484
Rp2485
sg1759
g9
((lp2486
g1761
atp2487
Rp2488
sg1749
g9
((lp2489
g1776
atp2490
Rp2491
ssS'S_4'
p2492
(dp2493
g1744
g9
((lp2494
g1947
atp2495
Rp2496
sg1749
g9
((lp2497
g1776
atp2498
Rp2499
sg1754
g9
((lp2500
g1776
atp2501
Rp2502
sg2246
g9
((lp2503
S'S_1'
p2504
aS'S_0'
p2505
aS'S_2'
p2506
atp2507
Rp2508
sg1759
g9
((lp2509
g1761
atp2510
Rp2511
ssS'S_6'
p2512
(dp2513
g1754
g9
((lp2514
g1776
atp2515
Rp2516
sg1941
g9
((lp2517
S'S_1'
p2518
aS'S_4'
p2519
atp2520
Rp2521
sg1744
g9
((lp2522
g1769
atp2523
Rp2524
sg2246
g9
((lp2525
S'S_1'
p2526
aS'S_0'
p2527
aS'S_3'
p2528
aS'S_2'
p2529
atp2530
Rp2531
sg1759
g9
((lp2532
g1761
atp2533
Rp2534
sg1749
g9
((lp2535
g1776
atp2536
Rp2537
sssg1823
(dp2538
S'S_1'
p2539
(dp2540
g1744
g9
((lp2541
g1947
atp2542
Rp2543
sg1749
g9
((lp2544
g1776
atp2545
Rp2546
sg1754
g9
((lp2547
g1776
atp2548
Rp2549
sg1759
g9
((lp2550
g1761
atp2551
Rp2552
ssS'S_0'
p2553
(dp2554
g1941
g9
((lp2555
S'S_1'
p2556
aS'S_4'
p2557
atp2558
Rp2559
sg1744
g9
((lp2560
g1769
atp2561
Rp2562
sg1749
g9
((lp2563
g1776
atp2564
Rp2565
sg1754
g9
((lp2566
g1776
atp2567
Rp2568
sg1759
g9
((lp2569
g1761
atp2570
Rp2571
ssS'S_3'
p2572
(dp2573
g1754
g9
((lp2574
g1776
atp2575
Rp2576
sg1941
g9
((lp2577
S'S_1'
p2578
aS'S_4'
p2579
atp2580
Rp2581
sg1744
g9
((lp2582
g1947
atp2583
Rp2584
sg2246
g9
((lp2585
S'S_0'
p2586
atp2587
Rp2588
sg1759
g9
((lp2589
g1761
atp2590
Rp2591
sg1749
g9
((lp2592
g1776
atp2593
Rp2594
ssS'S_2'
p2595
(dp2596
g1941
g9
((lp2597
S'S_1'
p2598
aS'S_0'
p2599
aS'S_3'
p2600
aS'S_4'
p2601
aS'S_6'
p2602
atp2603
Rp2604
sg1744
g9
((lp2605
g1769
atp2606
Rp2607
sg1749
g9
((lp2608
g1794
atp2609
Rp2610
sg1754
g9
((lp2611
S'90'
p2612
atp2613
Rp2614
sg1759
g9
((lp2615
g1761
atp2616
Rp2617
ssS'S_5'
p2618
(dp2619
g1754
g9
((lp2620
g1776
atp2621
Rp2622
sg1941
g9
((lp2623
S'S_1'
p2624
aS'S_0'
p2625
aS'S_3'
p2626
aS'S_4'
p2627
aS'S_6'
p2628
atp2629
Rp2630
sg1744
g9
((lp2631
g1746
atp2632
Rp2633
sg2246
g9
((lp2634
S'S_1'
p2635
aS'S_0'
p2636
aS'S_2'
p2637
atp2638
Rp2639
sg1759
g9
((lp2640
g1761
atp2641
Rp2642
sg1749
g9
((lp2643
g1776
atp2644
Rp2645
ssS'S_4'
p2646
(dp2647
g1744
g9
((lp2648
g1947
atp2649
Rp2650
sg1749
g9
((lp2651
g1776
atp2652
Rp2653
sg1754
g9
((lp2654
g1776
atp2655
Rp2656
sg2246
g9
((lp2657
S'S_1'
p2658
aS'S_0'
p2659
aS'S_2'
p2660
atp2661
Rp2662
sg1759
g9
((lp2663
g1761
atp2664
Rp2665
ssS'S_6'
p2666
(dp2667
g1754
g9
((lp2668
g1776
atp2669
Rp2670
sg1941
g9
((lp2671
S'S_1'
p2672
aS'S_4'
p2673
atp2674
Rp2675
sg1744
g9
((lp2676
g1947
atp2677
Rp2678
sg2246
g9
((lp2679
S'S_1'
p2680
aS'S_0'
p2681
aS'S_3'
p2682
aS'S_2'
p2683
atp2684
Rp2685
sg1759
g9
((lp2686
g1761
atp2687
Rp2688
sg1749
g9
((lp2689
g1776
atp2690
Rp2691
sssg1840
(dp2692
S'S_1'
p2693
(dp2694
g1744
g9
((lp2695
g1947
atp2696
Rp2697
sg1749
g9
((lp2698
g1776
atp2699
Rp2700
sg1754
g9
((lp2701
g1776
atp2702
Rp2703
sg1759
g9
((lp2704
g1761
atp2705
Rp2706
ssS'S_0'
p2707
(dp2708
g1941
g9
((lp2709
S'S_1'
p2710
aS'S_5'
p2711
atp2712
Rp2713
sg1744
g9
((lp2714
g1947
atp2715
Rp2716
sg1749
g9
((lp2717
g1776
atp2718
Rp2719
sg1754
g9
((lp2720
g1776
atp2721
Rp2722
sg1759
g9
((lp2723
g1761
atp2724
Rp2725
ssS'S_3'
p2726
(dp2727
g1754
g9
((lp2728
g1776
atp2729
Rp2730
sg1941
g9
((lp2731
S'S_1'
p2732
aS'S_5'
p2733
atp2734
Rp2735
sg1744
g9
((lp2736
g1947
atp2737
Rp2738
sg2246
g9
((lp2739
S'S_0'
p2740
atp2741
Rp2742
sg1759
g9
((lp2743
g1761
atp2744
Rp2745
sg1749
g9
((lp2746
g1776
atp2747
Rp2748
ssS'S_2'
p2749
(dp2750
g1941
g9
((lp2751
S'S_1'
p2752
aS'S_0'
p2753
aS'S_3'
p2754
aS'S_5'
p2755
aS'S_6'
p2756
atp2757
Rp2758
sg1744
g9
((lp2759
g1947
atp2760
Rp2761
sg1749
g9
((lp2762
g1776
atp2763
Rp2764
sg1754
g9
((lp2765
g1776
atp2766
Rp2767
sg1759
g9
((lp2768
g1761
atp2769
Rp2770
ssS'S_5'
p2771
(dp2772
g1744
g9
((lp2773
g1746
atp2774
Rp2775
sg1749
g9
((lp2776
g1776
atp2777
Rp2778
sg1754
g9
((lp2779
g1776
atp2780
Rp2781
sg2246
g9
((lp2782
S'S_1'
p2783
aS'S_0'
p2784
aS'S_2'
p2785
atp2786
Rp2787
sg1759
g9
((lp2788
g1761
atp2789
Rp2790
ssS'S_4'
p2791
(dp2792
g1754
g9
((lp2793
g1776
atp2794
Rp2795
sg1941
g9
((lp2796
S'S_1'
p2797
aS'S_0'
p2798
aS'S_3'
p2799
aS'S_5'
p2800
aS'S_6'
p2801
atp2802
Rp2803
sg1744
g9
((lp2804
g1769
atp2805
Rp2806
sg2246
g9
((lp2807
S'S_1'
p2808
aS'S_0'
p2809
aS'S_2'
p2810
atp2811
Rp2812
sg1759
g9
((lp2813
g1761
atp2814
Rp2815
sg1749
g9
((lp2816
g1776
atp2817
Rp2818
ssS'S_6'
p2819
(dp2820
g1754
g9
((lp2821
g1776
atp2822
Rp2823
sg1941
g9
((lp2824
S'S_1'
p2825
aS'S_5'
p2826
atp2827
Rp2828
sg1744
g9
((lp2829
g1947
atp2830
Rp2831
sg2246
g9
((lp2832
S'S_1'
p2833
aS'S_0'
p2834
aS'S_3'
p2835
aS'S_2'
p2836
atp2837
Rp2838
sg1759
g9
((lp2839
g1761
atp2840
Rp2841
sg1749
g9
((lp2842
g1776
atp2843
Rp2844
sssa(dp2845
g1740
(dp2846
S'S_0'
p2847
(dp2848
g1744
g9
((lp2849
g1947
atp2850
Rp2851
sg1749
g9
((lp2852
g1776
atp2853
Rp2854
sg1754
g9
((lp2855
g1776
atp2856
Rp2857
sg1759
g9
((lp2858
g1761
atp2859
Rp2860
sssg1764
(dp2861
S'S_0'
p2862
(dp2863
g1744
g9
((lp2864
g1769
atp2865
Rp2866
sg1749
g9
((lp2867
g1776
atp2868
Rp2869
sg1754
g9
((lp2870
g1776
atp2871
Rp2872
sg1759
g9
((lp2873
g1761
atp2874
Rp2875
sssg1823
(dp2876
S'S_0'
p2877
(dp2878
g1744
g9
((lp2879
g1947
atp2880
Rp2881
sg1749
g9
((lp2882
g1776
atp2883
Rp2884
sg1754
g9
((lp2885
g1776
atp2886
Rp2887
sg1759
g9
((lp2888
g1761
atp2889
Rp2890
sssg1840
(dp2891
S'S_0'
p2892
(dp2893
g1744
g9
((lp2894
g1746
atp2895
Rp2896
sg1749
g9
((lp2897
g1776
atp2898
Rp2899
sg1754
g9
((lp2900
g1756
atp2901
Rp2902
sg1759
g9
((lp2903
g1761
atp2904
Rp2905
sssa(dp2906
g1740
(dp2907
S'S_1'
p2908
(dp2909
g1941
g9
((lp2910
S'S_0'
p2911
atp2912
Rp2913
sg1744
g9
((lp2914
g1769
atp2915
Rp2916
sg1749
g9
((lp2917
g1776
atp2918
Rp2919
sg1754
g9
((lp2920
g1776
atp2921
Rp2922
sg1759
g9
((lp2923
g1761
atp2924
Rp2925
ssS'S_0'
p2926
(dp2927
g1744
g9
((lp2928
g1769
atp2929
Rp2930
sg1749
g9
((lp2931
g1776
atp2932
Rp2933
sg1754
g9
((lp2934
g1776
atp2935
Rp2936
sg1759
g9
((lp2937
g1761
atp2938
Rp2939
sssg1764
(dp2940
S'S_0'
p2941
(dp2942
g1744
g9
((lp2943
g1746
atp2944
Rp2945
sg1749
g9
((lp2946
g1794
atp2947
Rp2948
sg1754
g9
((lp2949
g1776
atp2950
Rp2951
sg1759
g9
((lp2952
g1761
atp2953
Rp2954
sssg1823
(dp2955
S'S_1'
p2956
(dp2957
g1941
g9
((lp2958
S'S_0'
p2959
atp2960
Rp2961
sg1744
g9
((lp2962
g1746
atp2963
Rp2964
sg1749
g9
((lp2965
g1776
atp2966
Rp2967
sg1754
g9
((lp2968
g1776
atp2969
Rp2970
sg1759
g9
((lp2971
g1761
atp2972
Rp2973
ssS'S_0'
p2974
(dp2975
g1744
g9
((lp2976
g1746
atp2977
Rp2978
sg1749
g9
((lp2979
g1776
atp2980
Rp2981
sg1754
g9
((lp2982
g1776
atp2983
Rp2984
sg1759
g9
((lp2985
g1761
atp2986
Rp2987
sssg1840
(dp2988
S'S_0'
p2989
(dp2990
g1744
g9
((lp2991
g1947
atp2992
Rp2993
sg1749
g9
((lp2994
g1776
atp2995
Rp2996
sg1754
g9
((lp2997
g1776
atp2998
Rp2999
sg1759
g9
((lp3000
g1761
atp3001
Rp3002
sssa(dp3003
g1740
(dp3004
S'S_1'
p3005
(dp3006
g1744
g9
((lp3007
g1879
atp3008
Rp3009
sg1749
g9
((lp3010
g1776
atp3011
Rp3012
sg1754
g9
((lp3013
S'180'
p3014
atp3015
Rp3016
sg1759
g9
((lp3017
g1761
atp3018
Rp3019
ssS'S_0'
p3020
(dp3021
g1941
g9
((lp3022
S'S_1'
p3023
atp3024
Rp3025
sg1744
g9
((lp3026
g1879
atp3027
Rp3028
sg1749
g9
((lp3029
g1776
atp3030
Rp3031
sg1754
g9
((lp3032
g1886
atp3033
Rp3034
sg1759
g9
((lp3035
g1761
atp3036
Rp3037
sssg1764
(dp3038
S'S_1'
p3039
(dp3040
g1744
g9
((lp3041
g1879
atp3042
Rp3043
sg1749
g9
((lp3044
g1776
atp3045
Rp3046
sg1754
g9
((lp3047
S'315'
p3048
atp3049
Rp3050
sg2246
g9
((lp3051
S'S_0'
p3052
atp3053
Rp3054
sg1759
g9
((lp3055
g1761
atp3056
Rp3057
ssS'S_0'
p3058
(dp3059
g1744
g9
((lp3060
g1879
atp3061
Rp3062
sg1749
g9
((lp3063
g1776
atp3064
Rp3065
sg1754
g9
((lp3066
g1776
atp3067
Rp3068
sg1759
g9
((lp3069
g1761
atp3070
Rp3071
sssg1823
(dp3072
S'S_1'
p3073
(dp3074
g1941
g9
((lp3075
S'S_0'
p3076
atp3077
Rp3078
sg1744
g9
((lp3079
g1879
atp3080
Rp3081
sg1749
g9
((lp3082
g1776
atp3083
Rp3084
sg1754
g9
((lp3085
S'135'
p3086
atp3087
Rp3088
sg1759
g9
((lp3089
g1761
atp3090
Rp3091
ssS'S_0'
p3092
(dp3093
g1744
g9
((lp3094
g1879
atp3095
Rp3096
sg1749
g9
((lp3097
g1776
atp3098
Rp3099
sg1754
g9
((lp3100
g3086
atp3101
Rp3102
sg1759
g9
((lp3103
g1761
atp3104
Rp3105
sssg1840
(dp3106
S'S_1'
p3107
(dp3108
g1744
g9
((lp3109
g1879
atp3110
Rp3111
sg1749
g9
((lp3112
g1776
atp3113
Rp3114
sg1754
g9
((lp3115
g3048
atp3116
Rp3117
sg2246
g9
((lp3118
S'S_0'
p3119
atp3120
Rp3121
sg1759
g9
((lp3122
g1761
atp3123
Rp3124
ssS'S_0'
p3125
(dp3126
g1744
g9
((lp3127
g1879
atp3128
Rp3129
sg1749
g9
((lp3130
g1776
atp3131
Rp3132
sg1754
g9
((lp3133
g1886
atp3134
Rp3135
sg1759
g9
((lp3136
g1761
atp3137
Rp3138
sssa(dp3139
g1740
(dp3140
S'S_0'
p3141
(dp3142
g1744
g9
((lp3143
g1947
atp3144
Rp3145
sg1749
g9
((lp3146
g1776
atp3147
Rp3148
sg1754
g9
((lp3149
g1776
atp3150
Rp3151
sg1759
g9
((lp3152
g1761
atp3153
Rp3154
sssg1764
(dp3155
S'S_0'
p3156
(dp3157
g1744
g9
((lp3158
g1746
atp3159
Rp3160
sg1749
g9
((lp3161
g1794
atp3162
Rp3163
sg1754
g9
((lp3164
g1756
atp3165
Rp3166
sg1759
g9
((lp3167
g1761
atp3168
Rp3169
sssg1823
(dp3170
S'S_0'
p3171
(dp3172
g1744
g9
((lp3173
g1746
atp3174
Rp3175
sg1749
g9
((lp3176
g1776
atp3177
Rp3178
sg1754
g9
((lp3179
g1776
atp3180
Rp3181
sg1759
g9
((lp3182
g1761
atp3183
Rp3184
sssg1840
(dp3185
S'S_0'
p3186
(dp3187
g1744
g9
((lp3188
g1947
atp3189
Rp3190
sg1749
g9
((lp3191
g1794
atp3192
Rp3193
sg1754
g9
((lp3194
g1776
atp3195
Rp3196
sg1759
g9
((lp3197
g1761
atp3198
Rp3199
sssa(dp3200
g1740
(dp3201
S'S_0'
p3202
(dp3203
g1744
g9
((lp3204
g1746
atp3205
Rp3206
sg1749
g9
((lp3207
g1751
atp3208
Rp3209
sg1754
g9
((lp3210
g1776
atp3211
Rp3212
sg1759
g9
((lp3213
g1761
atp3214
Rp3215
sssg1764
(dp3216
S'S_0'
p3217
(dp3218
g1744
g9
((lp3219
g1746
atp3220
Rp3221
sg1749
g9
((lp3222
g1776
atp3223
Rp3224
sg1754
g9
((lp3225
g1776
atp3226
Rp3227
sg1759
g9
((lp3228
g1761
atp3229
Rp3230
sssg1823
(dp3231
S'S_0'
p3232
(dp3233
g1744
g9
((lp3234
g1746
atp3235
Rp3236
sg1749
g9
((lp3237
g1794
atp3238
Rp3239
sg1754
g9
((lp3240
g1776
atp3241
Rp3242
sg1759
g9
((lp3243
g1761
atp3244
Rp3245
sssg1840
(dp3246
S'S_0'
p3247
(dp3248
g1744
g9
((lp3249
g1746
atp3250
Rp3251
sg1749
g9
((lp3252
g1794
atp3253
Rp3254
sg1754
g9
((lp3255
g1776
atp3256
Rp3257
sg1759
g9
((lp3258
g1761
atp3259
Rp3260
sssa(dp3261
g1740
(dp3262
S'S_1'
p3263
(dp3264
g1744
g9
((lp3265
g1746
atp3266
Rp3267
sg1749
g9
((lp3268
S'5'
p3269
atp3270
Rp3271
sg1754
g9
((lp3272
g1776
atp3273
Rp3274
sg1779
g9
((lp3275
S'S_0'
p3276
atp3277
Rp3278
sg1759
g9
((lp3279
g1761
atp3280
Rp3281
ssS'S_0'
p3282
(dp3283
g1744
g9
((lp3284
g1947
atp3285
Rp3286
sg1749
g9
((lp3287
g1831
atp3288
Rp3289
sg1754
g9
((lp3290
g1776
atp3291
Rp3292
sg1759
g9
((lp3293
g1761
atp3294
Rp3295
ssS'S_2'
p3296
(dp3297
g1744
g9
((lp3298
g1769
atp3299
Rp3300
sg1749
g9
((lp3301
g1794
atp3302
Rp3303
sg1754
g9
((lp3304
g1776
atp3305
Rp3306
sg1779
g9
((lp3307
S'S_1'
p3308
aS'S_0'
p3309
atp3310
Rp3311
sg1759
g9
((lp3312
g1761
atp3313
Rp3314
sssg1764
(dp3315
S'S_1'
p3316
(dp3317
g1754
g9
((lp3318
g3048
atp3319
Rp3320
sg1779
g9
((lp3321
S'S_0'
p3322
atp3323
Rp3324
sg1941
g9
((lp3325
S'S_0'
p3326
aS'S_2'
p3327
aS'S_4'
p3328
aS'S_6'
p3329
aS'S_8'
p3330
aS'S_14'
p3331
aS'S_10'
p3332
aS'S_13'
p3333
aS'S_12'
p3334
atp3335
Rp3336
sg1744
g9
((lp3337
g1879
atp3338
Rp3339
sg1759
g9
((lp3340
g1761
atp3341
Rp3342
sg1749
g9
((lp3343
g1776
atp3344
Rp3345
ssS'S_0'
p3346
(dp3347
g1941
g9
((lp3348
S'S_4'
p3349
aS'S_8'
p3350
aS'S_2'
p3351
aS'S_10'
p3352
aS'S_6'
p3353
atp3354
Rp3355
sg1744
g9
((lp3356
g1769
atp3357
Rp3358
sg1749
g9
((lp3359
S'4'
p3360
atp3361
Rp3362
sg1754
g9
((lp3363
g1776
atp3364
Rp3365
sg1759
g9
((lp3366
g1801
atp3367
Rp3368
ssS'S_3'
p3369
(dp3370
g1754
g9
((lp3371
g1776
atp3372
Rp3373
sg1779
g9
((lp3374
S'S_0'
p3375
atp3376
Rp3377
sg1941
g9
((lp3378
S'S_0'
p3379
aS'S_2'
p3380
aS'S_4'
p3381
aS'S_6'
p3382
aS'S_8'
p3383
aS'S_14'
p3384
aS'S_10'
p3385
aS'S_13'
p3386
aS'S_12'
p3387
atp3388
Rp3389
sg1744
g9
((lp3390
g1746
atp3391
Rp3392
sg2246
g9
((lp3393
S'S_1'
p3394
aS'S_2'
p3395
atp3396
Rp3397
sg1759
g9
((lp3398
g1761
atp3399
Rp3400
sg1749
g9
((lp3401
g1776
atp3402
Rp3403
ssS'S_2'
p3404
(dp3405
g1744
g9
((lp3406
g1879
atp3407
Rp3408
sg1749
g9
((lp3409
g1776
atp3410
Rp3411
sg1754
g9
((lp3412
g1886
atp3413
Rp3414
sg1779
g9
((lp3415
S'S_0'
p3416
atp3417
Rp3418
sg1759
g9
((lp3419
g1761
atp3420
Rp3421
ssS'S_5'
p3422
(dp3423
g1754
g9
((lp3424
g1776
atp3425
Rp3426
sg1779
g9
((lp3427
S'S_0'
p3428
atp3429
Rp3430
sg1941
g9
((lp3431
S'S_0'
p3432
aS'S_2'
p3433
aS'S_4'
p3434
aS'S_6'
p3435
aS'S_8'
p3436
aS'S_14'
p3437
aS'S_10'
p3438
aS'S_13'
p3439
aS'S_12'
p3440
atp3441
Rp3442
sg1744
g9
((lp3443
g1746
atp3444
Rp3445
sg2246
g9
((lp3446
S'S_1'
p3447
aS'S_2'
p3448
atp3449
Rp3450
sg1759
g9
((lp3451
g1761
atp3452
Rp3453
sg1749
g9
((lp3454
g1794
atp3455
Rp3456
ssS'S_4'
p3457
(dp3458
g1754
g9
((lp3459
g1776
atp3460
Rp3461
sg1779
g9
((lp3462
S'S_0'
p3463
atp3464
Rp3465
sg1744
g9
((lp3466
g1746
atp3467
Rp3468
sg2246
g9
((lp3469
S'S_1'
p3470
aS'S_2'
p3471
atp3472
Rp3473
sg1759
g9
((lp3474
g1761
atp3475
Rp3476
sg1749
g9
((lp3477
g1794
atp3478
Rp3479
ssS'S_7'
p3480
(dp3481
g1754
g9
((lp3482
g1776
atp3483
Rp3484
sg1779
g9
((lp3485
S'S_0'
p3486
atp3487
Rp3488
sg1941
g9
((lp3489
S'S_0'
p3490
aS'S_2'
p3491
aS'S_4'
p3492
aS'S_6'
p3493
aS'S_8'
p3494
aS'S_14'
p3495
aS'S_10'
p3496
aS'S_13'
p3497
aS'S_12'
p3498
atp3499
Rp3500
sg1744
g9
((lp3501
g1746
atp3502
Rp3503
sg2246
g9
((lp3504
S'S_1'
p3505
aS'S_2'
p3506
atp3507
Rp3508
sg1759
g9
((lp3509
g1761
atp3510
Rp3511
sg1749
g9
((lp3512
g1794
atp3513
Rp3514
ssS'S_6'
p3515
(dp3516
g1754
g9
((lp3517
g1776
atp3518
Rp3519
sg1779
g9
((lp3520
S'S_0'
p3521
atp3522
Rp3523
sg1744
g9
((lp3524
g1746
atp3525
Rp3526
sg2246
g9
((lp3527
S'S_1'
p3528
aS'S_2'
p3529
atp3530
Rp3531
sg1759
g9
((lp3532
g1761
atp3533
Rp3534
sg1749
g9
((lp3535
g1794
atp3536
Rp3537
ssS'S_9'
p3538
(dp3539
g1754
g9
((lp3540
g1776
atp3541
Rp3542
sg1779
g9
((lp3543
S'S_0'
p3544
atp3545
Rp3546
sg1941
g9
((lp3547
S'S_0'
p3548
aS'S_2'
p3549
aS'S_4'
p3550
aS'S_6'
p3551
aS'S_8'
p3552
aS'S_14'
p3553
aS'S_10'
p3554
aS'S_13'
p3555
aS'S_12'
p3556
atp3557
Rp3558
sg1744
g9
((lp3559
g1746
atp3560
Rp3561
sg2246
g9
((lp3562
S'S_1'
p3563
aS'S_2'
p3564
atp3565
Rp3566
sg1759
g9
((lp3567
g1761
atp3568
Rp3569
sg1749
g9
((lp3570
g1794
atp3571
Rp3572
ssS'S_8'
p3573
(dp3574
g1754
g9
((lp3575
g1776
atp3576
Rp3577
sg1779
g9
((lp3578
S'S_0'
p3579
atp3580
Rp3581
sg1744
g9
((lp3582
g1746
atp3583
Rp3584
sg2246
g9
((lp3585
S'S_1'
p3586
aS'S_2'
p3587
atp3588
Rp3589
sg1759
g9
((lp3590
g1761
atp3591
Rp3592
sg1749
g9
((lp3593
g1794
atp3594
Rp3595
ssS'S_14'
p3596
(dp3597
g1754
g9
((lp3598
g1756
atp3599
Rp3600
sg1779
g9
((lp3601
S'S_0'
p3602
atp3603
Rp3604
sg1941
g9
((lp3605
S'S_4'
p3606
aS'S_8'
p3607
aS'S_2'
p3608
aS'S_10'
p3609
aS'S_6'
p3610
atp3611
Rp3612
sg1744
g9
((lp3613
g1746
atp3614
Rp3615
sg2246
g9
((lp3616
S'S_1'
p3617
aS'S_0'
p3618
aS'S_3'
p3619
aS'S_2'
p3620
aS'S_5'
p3621
aS'S_4'
p3622
aS'S_7'
p3623
aS'S_6'
p3624
aS'S_13'
p3625
aS'S_12'
p3626
atp3627
Rp3628
sg1759
g9
((lp3629
g1761
atp3630
Rp3631
sg1749
g9
((lp3632
g1831
atp3633
Rp3634
ssS'S_11'
p3635
(dp3636
g1754
g9
((lp3637
g1776
atp3638
Rp3639
sg1779
g9
((lp3640
S'S_0'
p3641
atp3642
Rp3643
sg1941
g9
((lp3644
S'S_0'
p3645
aS'S_2'
p3646
aS'S_4'
p3647
aS'S_6'
p3648
aS'S_8'
p3649
aS'S_14'
p3650
aS'S_10'
p3651
aS'S_13'
p3652
aS'S_12'
p3653
atp3654
Rp3655
sg1744
g9
((lp3656
g1746
atp3657
Rp3658
sg2246
g9
((lp3659
S'S_1'
p3660
aS'S_2'
p3661
atp3662
Rp3663
sg1759
g9
((lp3664
g1761
atp3665
Rp3666
sg1749
g9
((lp3667
g1776
atp3668
Rp3669
ssS'S_10'
p3670
(dp3671
g1754
g9
((lp3672
g1776
atp3673
Rp3674
sg1779
g9
((lp3675
S'S_0'
p3676
atp3677
Rp3678
sg1744
g9
((lp3679
g1746
atp3680
Rp3681
sg2246
g9
((lp3682
S'S_1'
p3683
aS'S_2'
p3684
atp3685
Rp3686
sg1759
g9
((lp3687
g1761
atp3688
Rp3689
sg1749
g9
((lp3690
g1776
atp3691
Rp3692
ssS'S_13'
p3693
(dp3694
g1754
g9
((lp3695
g1776
atp3696
Rp3697
sg1779
g9
((lp3698
S'S_0'
p3699
aS'S_12'
p3700
atp3701
Rp3702
sg1941
g9
((lp3703
S'S_4'
p3704
aS'S_8'
p3705
aS'S_2'
p3706
aS'S_10'
p3707
aS'S_6'
p3708
atp3709
Rp3710
sg1744
g9
((lp3711
g1746
atp3712
Rp3713
sg1759
g9
((lp3714
g1761
atp3715
Rp3716
sg1749
g9
((lp3717
g1831
atp3718
Rp3719
ssS'S_12'
p3720
(dp3721
g1754
g9
((lp3722
g1776
atp3723
Rp3724
sg1779
g9
((lp3725
S'S_0'
p3726
atp3727
Rp3728
sg1941
g9
((lp3729
S'S_4'
p3730
aS'S_8'
p3731
aS'S_2'
p3732
aS'S_10'
p3733
aS'S_6'
p3734
atp3735
Rp3736
sg1744
g9
((lp3737
g1947
atp3738
Rp3739
sg1759
g9
((lp3740
g1761
atp3741
Rp3742
sg1749
g9
((lp3743
g1751
atp3744
Rp3745
sssg1823
(dp3746
S'S_1'
p3747
(dp3748
g1744
g9
((lp3749
g1769
atp3750
Rp3751
sg1749
g9
((lp3752
g1831
atp3753
Rp3754
sg1754
g9
((lp3755
g1776
atp3756
Rp3757
sg1779
g9
((lp3758
S'S_0'
p3759
atp3760
Rp3761
sg1759
g9
((lp3762
g1761
atp3763
Rp3764
ssS'S_0'
p3765
(dp3766
g1744
g9
((lp3767
g1746
atp3768
Rp3769
sg1749
g9
((lp3770
S'6'
p3771
atp3772
Rp3773
sg1754
g9
((lp3774
g1776
atp3775
Rp3776
sg1759
g9
((lp3777
g1761
atp3778
Rp3779
ssS'S_2'
p3780
(dp3781
g1744
g9
((lp3782
g1947
atp3783
Rp3784
sg1749
g9
((lp3785
g1794
atp3786
Rp3787
sg1754
g9
((lp3788
g1776
atp3789
Rp3790
sg1779
g9
((lp3791
S'S_1'
p3792
aS'S_0'
p3793
atp3794
Rp3795
sg1759
g9
((lp3796
g1761
atp3797
Rp3798
sssg1840
(dp3799
S'S_1'
p3800
(dp3801
g1744
g9
((lp3802
g1769
atp3803
Rp3804
sg1749
g9
((lp3805
g1831
atp3806
Rp3807
sg1754
g9
((lp3808
g1776
atp3809
Rp3810
sg1779
g9
((lp3811
S'S_0'
p3812
atp3813
Rp3814
sg1759
g9
((lp3815
g1761
atp3816
Rp3817
ssS'S_0'
p3818
(dp3819
g1744
g9
((lp3820
g1746
atp3821
Rp3822
sg1749
g9
((lp3823
g3771
atp3824
Rp3825
sg1754
g9
((lp3826
g1776
atp3827
Rp3828
sg1759
g9
((lp3829
g1761
atp3830
Rp3831
ssS'S_2'
p3832
(dp3833
g1744
g9
((lp3834
g1947
atp3835
Rp3836
sg1749
g9
((lp3837
g1794
atp3838
Rp3839
sg1754
g9
((lp3840
g1776
atp3841
Rp3842
sg1779
g9
((lp3843
S'S_1'
p3844
aS'S_0'
p3845
atp3846
Rp3847
sg1759
g9
((lp3848
g1761
atp3849
Rp3850
sssa(dp3851
g1740
(dp3852
S'S_0'
p3853
(dp3854
g1744
g9
((lp3855
g1746
atp3856
Rp3857
sg1749
g9
((lp3858
g1794
atp3859
Rp3860
sg1754
g9
((lp3861
g1776
atp3862
Rp3863
sg1759
g9
((lp3864
g1761
atp3865
Rp3866
sssg1764
(dp3867
S'S_1'
p3868
(dp3869
g1744
g9
((lp3870
g1769
atp3871
Rp3872
sg1749
g9
((lp3873
g1794
atp3874
Rp3875
sg1754
g9
((lp3876
g1776
atp3877
Rp3878
sg1779
g9
((lp3879
S'S_0'
p3880
atp3881
Rp3882
sg1759
g9
((lp3883
g1761
atp3884
Rp3885
ssS'S_0'
p3886
(dp3887
g1744
g9
((lp3888
g1769
atp3889
Rp3890
sg1749
g9
((lp3891
g1831
atp3892
Rp3893
sg1754
g9
((lp3894
g1776
atp3895
Rp3896
sg1759
g9
((lp3897
g1801
atp3898
Rp3899
sssg1823
(dp3900
S'S_0'
p3901
(dp3902
g1744
g9
((lp3903
g1769
atp3904
Rp3905
sg1749
g9
((lp3906
g1831
atp3907
Rp3908
sg1754
g9
((lp3909
g1776
atp3910
Rp3911
sg1759
g9
((lp3912
g1761
atp3913
Rp3914
sssg1840
(dp3915
S'S_0'
p3916
(dp3917
g1744
g9
((lp3918
g1746
atp3919
Rp3920
sg1749
g9
((lp3921
g1776
atp3922
Rp3923
sg1754
g9
((lp3924
g1776
atp3925
Rp3926
sg1759
g9
((lp3927
g1761
atp3928
Rp3929
sssa(dp3930
g1740
(dp3931
S'S_1'
p3932
(dp3933
g1744
g9
((lp3934
g1746
atp3935
Rp3936
sg1749
g9
((lp3937
g1776
atp3938
Rp3939
sg1754
g9
((lp3940
g1776
atp3941
Rp3942
sg1779
g9
((lp3943
S'S_0'
p3944
atp3945
Rp3946
sg1759
g9
((lp3947
g1761
atp3948
Rp3949
ssS'S_0'
p3950
(dp3951
g1744
g9
((lp3952
g1947
atp3953
Rp3954
sg1749
g9
((lp3955
g1776
atp3956
Rp3957
sg1754
g9
((lp3958
g1776
atp3959
Rp3960
sg1759
g9
((lp3961
g1761
atp3962
Rp3963
ssS'S_2'
p3964
(dp3965
g1744
g9
((lp3966
g1769
atp3967
Rp3968
sg1749
g9
((lp3969
g1776
atp3970
Rp3971
sg1754
g9
((lp3972
g1776
atp3973
Rp3974
sg1779
g9
((lp3975
S'S_1'
p3976
aS'S_0'
p3977
atp3978
Rp3979
sg1759
g9
((lp3980
g1761
atp3981
Rp3982
sssg1764
(dp3983
S'S_1'
p3984
(dp3985
g1744
g9
((lp3986
g1879
atp3987
Rp3988
sg1749
g9
((lp3989
g1776
atp3990
Rp3991
sg1754
g9
((lp3992
g3014
atp3993
Rp3994
sg1779
g9
((lp3995
S'S_0'
p3996
atp3997
Rp3998
sg1759
g9
((lp3999
g1761
atp4000
Rp4001
ssS'S_0'
p4002
(dp4003
g1744
g9
((lp4004
g1947
atp4005
Rp4006
sg1749
g9
((lp4007
g1776
atp4008
Rp4009
sg1754
g9
((lp4010
g1776
atp4011
Rp4012
sg1759
g9
((lp4013
g1761
atp4014
Rp4015
sssg1823
(dp4016
S'S_1'
p4017
(dp4018
g1744
g9
((lp4019
g1947
atp4020
Rp4021
sg1749
g9
((lp4022
g1776
atp4023
Rp4024
sg1754
g9
((lp4025
g1776
atp4026
Rp4027
sg1779
g9
((lp4028
S'S_0'
p4029
atp4030
Rp4031
sg1759
g9
((lp4032
g1761
atp4033
Rp4034
ssS'S_0'
p4035
(dp4036
g1744
g9
((lp4037
g1746
atp4038
Rp4039
sg1749
g9
((lp4040
g1794
atp4041
Rp4042
sg1754
g9
((lp4043
g1776
atp4044
Rp4045
sg1759
g9
((lp4046
g1761
atp4047
Rp4048
ssS'S_2'
p4049
(dp4050
g1744
g9
((lp4051
g1879
atp4052
Rp4053
sg1749
g9
((lp4054
g1776
atp4055
Rp4056
sg1754
g9
((lp4057
g3048
atp4058
Rp4059
sg1779
g9
((lp4060
S'S_1'
p4061
aS'S_0'
p4062
atp4063
Rp4064
sg1759
g9
((lp4065
g1761
atp4066
Rp4067
sssg1840
(dp4068
S'S_1'
p4069
(dp4070
g1744
g9
((lp4071
g1769
atp4072
Rp4073
sg1749
g9
((lp4074
g1776
atp4075
Rp4076
sg1754
g9
((lp4077
g3014
atp4078
Rp4079
sg1779
g9
((lp4080
S'S_0'
p4081
atp4082
Rp4083
sg1759
g9
((lp4084
g1761
atp4085
Rp4086
ssS'S_0'
p4087
(dp4088
g1744
g9
((lp4089
g1746
atp4090
Rp4091
sg1749
g9
((lp4092
g1776
atp4093
Rp4094
sg1754
g9
((lp4095
g1776
atp4096
Rp4097
sg1759
g9
((lp4098
g1761
atp4099
Rp4100
sssa(dp4101
g1740
(dp4102
S'S_1'
p4103
(dp4104
g1754
g9
((lp4105
g1776
atp4106
Rp4107
sg1779
g9
((lp4108
S'S_0'
p4109
atp4110
Rp4111
sg1941
g9
((lp4112
S'S_2'
p4113
atp4114
Rp4115
sg1744
g9
((lp4116
g1746
atp4117
Rp4118
sg1759
g9
((lp4119
g1761
atp4120
Rp4121
sg1749
g9
((lp4122
g1776
atp4123
Rp4124
ssS'S_0'
p4125
(dp4126
g1941
g9
((lp4127
S'S_2'
p4128
atp4129
Rp4130
sg1744
g9
((lp4131
g1947
atp4132
Rp4133
sg1749
g9
((lp4134
g1751
atp4135
Rp4136
sg1754
g9
((lp4137
g1776
atp4138
Rp4139
sg1759
g9
((lp4140
g1761
atp4141
Rp4142
ssS'S_2'
p4143
(dp4144
g1744
g9
((lp4145
g1947
atp4146
Rp4147
sg1749
g9
((lp4148
g1776
atp4149
Rp4150
sg1754
g9
((lp4151
g1776
atp4152
Rp4153
sg2246
g9
((lp4154
S'S_1'
p4155
aS'S_0'
p4156
atp4157
Rp4158
sg1759
g9
((lp4159
g1801
atp4160
Rp4161
sssg1764
(dp4162
S'S_1'
p4163
(dp4164
g1754
g9
((lp4165
g1776
atp4166
Rp4167
sg1941
g9
((lp4168
S'S_0'
p4169
atp4170
Rp4171
sg1744
g9
((lp4172
g1947
atp4173
Rp4174
sg2246
g9
((lp4175
S'S_0'
p4176
atp4177
Rp4178
sg1759
g9
((lp4179
g1761
atp4180
Rp4181
sg1749
g9
((lp4182
g1751
atp4183
Rp4184
ssS'S_0'
p4185
(dp4186
g1744
g9
((lp4187
g1769
atp4188
Rp4189
sg1749
g9
((lp4190
g1794
atp4191
Rp4192
sg1754
g9
((lp4193
g1776
atp4194
Rp4195
sg1759
g9
((lp4196
g1761
atp4197
Rp4198
sssg1823
(dp4199
S'S_1'
p4200
(dp4201
g1744
g9
((lp4202
g1947
atp4203
Rp4204
sg1749
g9
((lp4205
g1794
atp4206
Rp4207
sg1754
g9
((lp4208
g1776
atp4209
Rp4210
sg1779
g9
((lp4211
S'S_0'
p4212
atp4213
Rp4214
sg1759
g9
((lp4215
g1761
atp4216
Rp4217
ssS'S_0'
p4218
(dp4219
g1744
g9
((lp4220
g1769
atp4221
Rp4222
sg1749
g9
((lp4223
g1794
atp4224
Rp4225
sg1754
g9
((lp4226
g1776
atp4227
Rp4228
sg1759
g9
((lp4229
g1761
atp4230
Rp4231
ssS'S_2'
p4232
(dp4233
g1754
g9
((lp4234
g1776
atp4235
Rp4236
sg1941
g9
((lp4237
S'S_1'
p4238
aS'S_0'
p4239
atp4240
Rp4241
sg1744
g9
((lp4242
g1947
atp4243
Rp4244
sg2246
g9
((lp4245
S'S_1'
p4246
aS'S_0'
p4247
atp4248
Rp4249
sg1759
g9
((lp4250
g1801
atp4251
Rp4252
sg1749
g9
((lp4253
g1776
atp4254
Rp4255
sssg1840
(dp4256
S'S_1'
p4257
(dp4258
g1744
g9
((lp4259
g1746
atp4260
Rp4261
sg1749
g9
((lp4262
g1794
atp4263
Rp4264
sg1754
g9
((lp4265
g1756
atp4266
Rp4267
sg2246
g9
((lp4268
S'S_0'
p4269
atp4270
Rp4271
sg1759
g9
((lp4272
g1761
atp4273
Rp4274
ssS'S_0'
p4275
(dp4276
g1941
g9
((lp4277
S'S_1'
p4278
atp4279
Rp4280
sg1744
g9
((lp4281
g1947
atp4282
Rp4283
sg1749
g9
((lp4284
g1751
atp4285
Rp4286
sg1754
g9
((lp4287
g1776
atp4288
Rp4289
sg1759
g9
((lp4290
g1761
atp4291
Rp4292
sssasS'2x2 (Image)'
p4293
(lp4294
(dp4295
g1740
(dp4296
S'S_0'
p4297
(dp4298
g1744
g9
((lp4299
g1947
atp4300
Rp4301
sg1749
g9
((lp4302
g1776
atp4303
Rp4304
sg1754
g9
((lp4305
g1776
atp4306
Rp4307
sg1759
g9
((lp4308
g1761
atp4309
Rp4310
sssg1764
(dp4311
S'S_0'
p4312
(dp4313
g1744
g9
((lp4314
g1769
atp4315
Rp4316
sg1749
g9
((lp4317
g1776
atp4318
Rp4319
sg1754
g9
((lp4320
g1776
atp4321
Rp4322
sg1759
g9
((lp4323
g1761
atp4324
Rp4325
sssg1823
(dp4326
S'S_0'
p4327
(dp4328
g1744
g9
((lp4329
g1790
atp4330
Rp4331
sg1749
g9
((lp4332
g1776
atp4333
Rp4334
sg1754
g9
((lp4335
g1756
atp4336
Rp4337
sg1759
g9
((lp4338
g1801
atp4339
Rp4340
sssg1840
(dp4341
S'S_0'
p4342
(dp4343
g1744
g9
((lp4344
g1947
atp4345
Rp4346
sg1749
g9
((lp4347
g1776
atp4348
Rp4349
sg1754
g9
((lp4350
g1776
atp4351
Rp4352
sg1759
g9
((lp4353
g1761
atp4354
Rp4355
sssa(dp4356
g1740
(dp4357
S'S_1'
p4358
(dp4359
g1941
g9
((lp4360
S'S_0'
p4361
atp4362
Rp4363
sg1744
g9
((lp4364
g1769
atp4365
Rp4366
sg1749
g9
((lp4367
g1776
atp4368
Rp4369
sg1754
g9
((lp4370
g1776
atp4371
Rp4372
sg1759
g9
((lp4373
g1761
atp4374
Rp4375
ssS'S_0'
p4376
(dp4377
g1744
g9
((lp4378
g1746
atp4379
Rp4380
sg1749
g9
((lp4381
g1776
atp4382
Rp4383
sg1754
g9
((lp4384
g1776
atp4385
Rp4386
sg1759
g9
((lp4387
g1761
atp4388
Rp4389
ssS'S_2'
p4390
(dp4391
g1941
g9
((lp4392
S'S_1'
p4393
aS'S_0'
p4394
atp4395
Rp4396
sg1744
g9
((lp4397
g1947
atp4398
Rp4399
sg1749
g9
((lp4400
g1776
atp4401
Rp4402
sg1754
g9
((lp4403
g1776
atp4404
Rp4405
sg1759
g9
((lp4406
g1761
atp4407
Rp4408
sssg1764
(dp4409
S'S_1'
p4410
(dp4411
g1941
g9
((lp4412
S'S_0'
p4413
aS'S_2'
p4414
atp4415
Rp4416
sg1744
g9
((lp4417
g1746
atp4418
Rp4419
sg1749
g9
((lp4420
g1776
atp4421
Rp4422
sg1754
g9
((lp4423
g1776
atp4424
Rp4425
sg1759
g9
((lp4426
g1801
atp4427
Rp4428
ssS'S_0'
p4429
(dp4430
g1744
g9
((lp4431
g1947
atp4432
Rp4433
sg1749
g9
((lp4434
g1776
atp4435
Rp4436
sg1754
g9
((lp4437
g1776
atp4438
Rp4439
sg1759
g9
((lp4440
g1801
atp4441
Rp4442
ssS'S_2'
p4443
(dp4444
g1941
g9
((lp4445
S'S_0'
p4446
atp4447
Rp4448
sg1744
g9
((lp4449
g1769
atp4450
Rp4451
sg1749
g9
((lp4452
g1776
atp4453
Rp4454
sg1754
g9
((lp4455
g1776
atp4456
Rp4457
sg1759
g9
((lp4458
g1761
atp4459
Rp4460
sssg1823
(dp4461
S'S_1'
p4462
(dp4463
g1744
g9
((lp4464
g1746
atp4465
Rp4466
sg1749
g9
((lp4467
g1776
atp4468
Rp4469
sg1754
g9
((lp4470
g1776
atp4471
Rp4472
sg1759
g9
((lp4473
g1761
atp4474
Rp4475
ssS'S_0'
p4476
(dp4477
g1941
g9
((lp4478
S'S_1'
p4479
aS'S_2'
p4480
atp4481
Rp4482
sg1744
g9
((lp4483
g1947
atp4484
Rp4485
sg1749
g9
((lp4486
g1776
atp4487
Rp4488
sg1754
g9
((lp4489
g1776
atp4490
Rp4491
sg1759
g9
((lp4492
g1801
atp4493
Rp4494
ssS'S_2'
p4495
(dp4496
g1941
g9
((lp4497
S'S_1'
p4498
atp4499
Rp4500
sg1744
g9
((lp4501
g1769
atp4502
Rp4503
sg1749
g9
((lp4504
g1776
atp4505
Rp4506
sg1754
g9
((lp4507
g1776
atp4508
Rp4509
sg1759
g9
((lp4510
g1761
atp4511
Rp4512
sssg1840
(dp4513
S'S_1'
p4514
(dp4515
g1941
g9
((lp4516
S'S_0'
p4517
atp4518
Rp4519
sg1744
g9
((lp4520
g1769
atp4521
Rp4522
sg1749
g9
((lp4523
g1776
atp4524
Rp4525
sg1754
g9
((lp4526
g1776
atp4527
Rp4528
sg1759
g9
((lp4529
g1761
atp4530
Rp4531
ssS'S_0'
p4532
(dp4533
g1744
g9
((lp4534
g1947
atp4535
Rp4536
sg1749
g9
((lp4537
g1776
atp4538
Rp4539
sg1754
g9
((lp4540
g1776
atp4541
Rp4542
sg1759
g9
((lp4543
g1761
atp4544
Rp4545
ssS'S_2'
p4546
(dp4547
g1941
g9
((lp4548
S'S_1'
p4549
aS'S_0'
p4550
atp4551
Rp4552
sg1744
g9
((lp4553
g1746
atp4554
Rp4555
sg1749
g9
((lp4556
g1776
atp4557
Rp4558
sg1754
g9
((lp4559
g1776
atp4560
Rp4561
sg1759
g9
((lp4562
g1761
atp4563
Rp4564
sssa(dp4565
g1740
(dp4566
S'S_1'
p4567
(dp4568
g1744
g9
((lp4569
g1769
atp4570
Rp4571
sg1749
g9
((lp4572
g1776
atp4573
Rp4574
sg1754
g9
((lp4575
g1776
atp4576
Rp4577
sg1779
g9
((lp4578
S'S_0'
p4579
atp4580
Rp4581
sg1759
g9
((lp4582
g1801
atp4583
Rp4584
ssS'S_0'
p4585
(dp4586
g1744
g9
((lp4587
g1746
atp4588
Rp4589
sg1749
g9
((lp4590
g1794
atp4591
Rp4592
sg1754
g9
((lp4593
g1776
atp4594
Rp4595
sg1759
g9
((lp4596
g1761
atp4597
Rp4598
sssg1764
(dp4599
S'S_1'
p4600
(dp4601
g1744
g9
((lp4602
g1769
atp4603
Rp4604
sg1749
g9
((lp4605
g1776
atp4606
Rp4607
sg1754
g9
((lp4608
S'270'
p4609
atp4610
Rp4611
sg1779
g9
((lp4612
S'S_0'
p4613
atp4614
Rp4615
sg1759
g9
((lp4616
g1801
atp4617
Rp4618
ssS'S_0'
p4619
(dp4620
g1744
g9
((lp4621
g1746
atp4622
Rp4623
sg1749
g9
((lp4624
g1794
atp4625
Rp4626
sg1754
g9
((lp4627
g1776
atp4628
Rp4629
sg1759
g9
((lp4630
g1761
atp4631
Rp4632
sssg1823
(dp4633
S'S_1'
p4634
(dp4635
g1744
g9
((lp4636
g1790
atp4637
Rp4638
sg1749
g9
((lp4639
g1776
atp4640
Rp4641
sg1754
g9
((lp4642
g1776
atp4643
Rp4644
sg1779
g9
((lp4645
S'S_0'
p4646
atp4647
Rp4648
sg1759
g9
((lp4649
g1801
atp4650
Rp4651
ssS'S_0'
p4652
(dp4653
g1744
g9
((lp4654
g1746
atp4655
Rp4656
sg1749
g9
((lp4657
g1794
atp4658
Rp4659
sg1754
g9
((lp4660
g1756
atp4661
Rp4662
sg1759
g9
((lp4663
g1761
atp4664
Rp4665
sssg1840
(dp4666
S'S_1'
p4667
(dp4668
g1744
g9
((lp4669
g1790
atp4670
Rp4671
sg1749
g9
((lp4672
g1776
atp4673
Rp4674
sg1754
g9
((lp4675
g1776
atp4676
Rp4677
sg1779
g9
((lp4678
S'S_0'
p4679
atp4680
Rp4681
sg1759
g9
((lp4682
g1801
atp4683
Rp4684
ssS'S_0'
p4685
(dp4686
g1744
g9
((lp4687
g1746
atp4688
Rp4689
sg1749
g9
((lp4690
g1794
atp4691
Rp4692
sg1754
g9
((lp4693
g1756
atp4694
Rp4695
sg1759
g9
((lp4696
g1761
atp4697
Rp4698
sssa(dp4699
g1740
(dp4700
sg1764
(dp4701
S'S_1'
p4702
(dp4703
g1744
g9
((lp4704
g1769
atp4705
Rp4706
sg1749
g9
((lp4707
g1776
atp4708
Rp4709
sg1754
g9
((lp4710
g4609
atp4711
Rp4712
sg1779
g9
((lp4713
S'S_0'
p4714
atp4715
Rp4716
sg1759
g9
((lp4717
g1801
atp4718
Rp4719
ssS'S_0'
p4720
(dp4721
g1744
g9
((lp4722
g1947
atp4723
Rp4724
sg1749
g9
((lp4725
g1794
atp4726
Rp4727
sg1754
g9
((lp4728
g1776
atp4729
Rp4730
sg1759
g9
((lp4731
g1761
atp4732
Rp4733
sssg1823
(dp4734
S'S_0'
p4735
(dp4736
g1744
g9
((lp4737
g1947
atp4738
Rp4739
sg1749
g9
((lp4740
g1794
atp4741
Rp4742
sg1754
g9
((lp4743
g1776
atp4744
Rp4745
sg1759
g9
((lp4746
g1761
atp4747
Rp4748
sssg1840
(dp4749
S'S_0'
p4750
(dp4751
g1744
g9
((lp4752
g1790
atp4753
Rp4754
sg1749
g9
((lp4755
g1776
atp4756
Rp4757
sg1754
g9
((lp4758
g1776
atp4759
Rp4760
sg1759
g9
((lp4761
g1801
atp4762
Rp4763
sssa(dp4764
g1740
(dp4765
S'S_0'
p4766
(dp4767
g1744
g9
((lp4768
g1879
atp4769
Rp4770
sg1749
g9
((lp4771
g1776
atp4772
Rp4773
sg1754
g9
((lp4774
g3048
atp4775
Rp4776
sg1759
g9
((lp4777
g1761
atp4778
Rp4779
sssg1764
(dp4780
S'S_1'
p4781
(dp4782
g1744
g9
((lp4783
g1879
atp4784
Rp4785
sg1749
g9
((lp4786
g1776
atp4787
Rp4788
sg1754
g9
((lp4789
g3014
atp4790
Rp4791
sg1779
g9
((lp4792
S'S_0'
p4793
atp4794
Rp4795
sg1759
g9
((lp4796
g1801
atp4797
Rp4798
ssS'S_0'
p4799
(dp4800
g1744
g9
((lp4801
g1947
atp4802
Rp4803
sg1749
g9
((lp4804
g1776
atp4805
Rp4806
sg1754
g9
((lp4807
g1776
atp4808
Rp4809
sg1759
g9
((lp4810
g1761
atp4811
Rp4812
sssg1823
(dp4813
S'S_1'
p4814
(dp4815
g1744
g9
((lp4816
g1879
atp4817
Rp4818
sg1749
g9
((lp4819
g1776
atp4820
Rp4821
sg1754
g9
((lp4822
g3048
atp4823
Rp4824
sg1779
g9
((lp4825
S'S_0'
p4826
atp4827
Rp4828
sg1759
g9
((lp4829
g1801
atp4830
Rp4831
ssS'S_0'
p4832
(dp4833
g1744
g9
((lp4834
g1947
atp4835
Rp4836
sg1749
g9
((lp4837
g1776
atp4838
Rp4839
sg1754
g9
((lp4840
g1776
atp4841
Rp4842
sg1759
g9
((lp4843
g1761
atp4844
Rp4845
sssg1840
(dp4846
S'S_0'
p4847
(dp4848
g1744
g9
((lp4849
g1879
atp4850
Rp4851
sg1749
g9
((lp4852
g1776
atp4853
Rp4854
sg1754
g9
((lp4855
g1886
atp4856
Rp4857
sg1759
g9
((lp4858
g1761
atp4859
Rp4860
sssa(dp4861
g1740
(dp4862
S'S_1'
p4863
(dp4864
g1744
g9
((lp4865
g1746
atp4866
Rp4867
sg1749
g9
((lp4868
g1831
atp4869
Rp4870
sg1754
g9
((lp4871
g1756
atp4872
Rp4873
sg1779
g9
((lp4874
S'S_0'
p4875
atp4876
Rp4877
sg1759
g9
((lp4878
g1761
atp4879
Rp4880
ssS'S_0'
p4881
(dp4882
g1744
g9
((lp4883
g1746
atp4884
Rp4885
sg1749
g9
((lp4886
g3360
atp4887
Rp4888
sg1754
g9
((lp4889
g1776
atp4890
Rp4891
sg1759
g9
((lp4892
g1761
atp4893
Rp4894
ssS'S_3'
p4895
(dp4896
g1744
g9
((lp4897
g1746
atp4898
Rp4899
sg1749
g9
((lp4900
g1794
atp4901
Rp4902
sg1754
g9
((lp4903
g1776
atp4904
Rp4905
sg1779
g9
((lp4906
S'S_1'
p4907
aS'S_0'
p4908
aS'S_2'
p4909
atp4910
Rp4911
sg1759
g9
((lp4912
g1761
atp4913
Rp4914
ssS'S_2'
p4915
(dp4916
g1744
g9
((lp4917
g1746
atp4918
Rp4919
sg1749
g9
((lp4920
g1751
atp4921
Rp4922
sg1754
g9
((lp4923
g1776
atp4924
Rp4925
sg1779
g9
((lp4926
S'S_1'
p4927
aS'S_0'
p4928
atp4929
Rp4930
sg1759
g9
((lp4931
g1761
atp4932
Rp4933
ssS'S_4'
p4934
(dp4935
g1744
g9
((lp4936
g1746
atp4937
Rp4938
sg1749
g9
((lp4939
g1776
atp4940
Rp4941
sg1754
g9
((lp4942
g1776
atp4943
Rp4944
sg1779
g9
((lp4945
S'S_1'
p4946
aS'S_0'
p4947
aS'S_3'
p4948
aS'S_2'
p4949
atp4950
Rp4951
sg1759
g9
((lp4952
g1761
atp4953
Rp4954
sssg1764
(dp4955
S'S_0'
p4956
(dp4957
g1744
g9
((lp4958
g1746
atp4959
Rp4960
sg1749
g9
((lp4961
g3360
atp4962
Rp4963
sg1754
g9
((lp4964
g1756
atp4965
Rp4966
sg1759
g9
((lp4967
g1801
atp4968
Rp4969
sssg1823
(dp4970
S'S_1'
p4971
(dp4972
g1744
g9
((lp4973
g1746
atp4974
Rp4975
sg1749
g9
((lp4976
g1751
atp4977
Rp4978
sg1754
g9
((lp4979
g1776
atp4980
Rp4981
sg1779
g9
((lp4982
S'S_0'
p4983
atp4984
Rp4985
sg1759
g9
((lp4986
g1761
atp4987
Rp4988
ssS'S_0'
p4989
(dp4990
g1744
g9
((lp4991
g1746
atp4992
Rp4993
sg1749
g9
((lp4994
g3360
atp4995
Rp4996
sg1754
g9
((lp4997
g1776
atp4998
Rp4999
sg1759
g9
((lp5000
g1761
atp5001
Rp5002
ssS'S_2'
p5003
(dp5004
g1744
g9
((lp5005
g1746
atp5006
Rp5007
sg1749
g9
((lp5008
g1776
atp5009
Rp5010
sg1754
g9
((lp5011
g1776
atp5012
Rp5013
sg1779
g9
((lp5014
S'S_1'
p5015
aS'S_0'
p5016
atp5017
Rp5018
sg1759
g9
((lp5019
g1761
atp5020
Rp5021
sssg1840
(dp5022
S'S_1'
p5023
(dp5024
g1744
g9
((lp5025
g1746
atp5026
Rp5027
sg1749
g9
((lp5028
g1794
atp5029
Rp5030
sg1754
g9
((lp5031
g1776
atp5032
Rp5033
sg1779
g9
((lp5034
S'S_0'
p5035
atp5036
Rp5037
sg1759
g9
((lp5038
g1761
atp5039
Rp5040
ssS'S_0'
p5041
(dp5042
g1744
g9
((lp5043
g1746
atp5044
Rp5045
sg1749
g9
((lp5046
g1831
atp5047
Rp5048
sg1754
g9
((lp5049
g1756
atp5050
Rp5051
sg1759
g9
((lp5052
g1761
atp5053
Rp5054
ssS'S_2'
p5055
(dp5056
g1744
g9
((lp5057
g1746
atp5058
Rp5059
sg1749
g9
((lp5060
g1776
atp5061
Rp5062
sg1754
g9
((lp5063
g1776
atp5064
Rp5065
sg1779
g9
((lp5066
S'S_1'
p5067
aS'S_0'
p5068
atp5069
Rp5070
sg1759
g9
((lp5071
g1801
atp5072
Rp5073
sssa(dp5074
g1740
(dp5075
S'S_0'
p5076
(dp5077
g1744
g9
((lp5078
g1879
atp5079
Rp5080
sg1749
g9
((lp5081
g1776
atp5082
Rp5083
sg1754
g9
((lp5084
g3048
atp5085
Rp5086
sg1759
g9
((lp5087
g1761
atp5088
Rp5089
sssg1764
(dp5090
S'S_0'
p5091
(dp5092
g1744
g9
((lp5093
g1879
atp5094
Rp5095
sg1749
g9
((lp5096
g1776
atp5097
Rp5098
sg1754
g9
((lp5099
g1886
atp5100
Rp5101
sg1759
g9
((lp5102
g1761
atp5103
Rp5104
sssg1823
(dp5105
S'S_0'
p5106
(dp5107
g1744
g9
((lp5108
g1879
atp5109
Rp5110
sg1749
g9
((lp5111
g1776
atp5112
Rp5113
sg1754
g9
((lp5114
g3014
atp5115
Rp5116
sg1759
g9
((lp5117
g1761
atp5118
Rp5119
sssg1840
(dp5120
S'S_0'
p5121
(dp5122
g1744
g9
((lp5123
g1879
atp5124
Rp5125
sg1749
g9
((lp5126
g1776
atp5127
Rp5128
sg1754
g9
((lp5129
g1756
atp5130
Rp5131
sg1759
g9
((lp5132
g1761
atp5133
Rp5134
sssa(dp5135
g1740
(dp5136
S'S_0'
p5137
(dp5138
g1744
g9
((lp5139
g1879
atp5140
Rp5141
sg1749
g9
((lp5142
g1776
atp5143
Rp5144
sg1754
g9
((lp5145
g1886
atp5146
Rp5147
sg1759
g9
((lp5148
g1761
atp5149
Rp5150
sssg1764
(dp5151
S'S_0'
p5152
(dp5153
g1744
g9
((lp5154
g1746
atp5155
Rp5156
sg1749
g9
((lp5157
g1776
atp5158
Rp5159
sg1754
g9
((lp5160
g1776
atp5161
Rp5162
sg1759
g9
((lp5163
g1761
atp5164
Rp5165
sssg1823
(dp5166
S'S_0'
p5167
(dp5168
g1744
g9
((lp5169
g1746
atp5170
Rp5171
sg1749
g9
((lp5172
g1776
atp5173
Rp5174
sg1754
g9
((lp5175
g1776
atp5176
Rp5177
sg1759
g9
((lp5178
g1761
atp5179
Rp5180
sssg1840
(dp5181
S'S_0'
p5182
(dp5183
g1744
g9
((lp5184
g1879
atp5185
Rp5186
sg1749
g9
((lp5187
g1776
atp5188
Rp5189
sg1754
g9
((lp5190
g3048
atp5191
Rp5192
sg1759
g9
((lp5193
g1761
atp5194
Rp5195
sssa(dp5196
g1740
(dp5197
S'S_0'
p5198
(dp5199
S'vertical-flip'
p5200
g9
((lp5201
g1761
atp5202
Rp5203
sg1744
g9
((lp5204
S'half-arrow'
p5205
atp5206
Rp5207
sg1749
g9
((lp5208
g1776
atp5209
Rp5210
sg1754
g9
((lp5211
g1776
atp5212
Rp5213
sg1759
g9
((lp5214
g1761
atp5215
Rp5216
sssg1764
(dp5217
S'S_0'
p5218
(dp5219
g5200
g9
((lp5220
g1761
atp5221
Rp5222
sg1744
g9
((lp5223
g5205
atp5224
Rp5225
sg1749
g9
((lp5226
g1776
atp5227
Rp5228
sg1754
g9
((lp5229
g3014
atp5230
Rp5231
sg1759
g9
((lp5232
g1761
atp5233
Rp5234
sssg1823
(dp5235
S'S_0'
p5236
(dp5237
g5200
g9
((lp5238
g1761
atp5239
Rp5240
sg1744
g9
((lp5241
g5205
atp5242
Rp5243
sg1749
g9
((lp5244
g1776
atp5245
Rp5246
sg1754
g9
((lp5247
g1776
atp5248
Rp5249
sg1759
g9
((lp5250
g1761
atp5251
Rp5252
sssg1840
(dp5253
S'S_0'
p5254
(dp5255
g5200
g9
((lp5256
g1761
atp5257
Rp5258
sg1744
g9
((lp5259
g5205
atp5260
Rp5261
sg1749
g9
((lp5262
g1776
atp5263
Rp5264
sg1754
g9
((lp5265
g3014
atp5266
Rp5267
sg1759
g9
((lp5268
g1761
atp5269
Rp5270
sssa(dp5271
g1740
(dp5272
S'S_1'
p5273
(dp5274
g1744
g9
((lp5275
g1879
atp5276
Rp5277
sg1749
g9
((lp5278
g1776
atp5279
Rp5280
sg1754
g9
((lp5281
g1776
atp5282
Rp5283
sg2246
g9
((lp5284
S'S_0'
p5285
atp5286
Rp5287
sg1759
g9
((lp5288
g1761
atp5289
Rp5290
ssS'S_0'
p5291
(dp5292
g1744
g9
((lp5293
g1879
atp5294
Rp5295
sg1749
g9
((lp5296
g1776
atp5297
Rp5298
sg1754
g9
((lp5299
g1886
atp5300
Rp5301
sg1759
g9
((lp5302
g1761
atp5303
Rp5304
sssg1764
(dp5305
S'S_1'
p5306
(dp5307
g1744
g9
((lp5308
g1879
atp5309
Rp5310
sg1749
g9
((lp5311
g1776
atp5312
Rp5313
sg1754
g9
((lp5314
g3048
atp5315
Rp5316
sg2246
g9
((lp5317
S'S_0'
p5318
atp5319
Rp5320
sg1759
g9
((lp5321
g1761
atp5322
Rp5323
ssS'S_0'
p5324
(dp5325
g1744
g9
((lp5326
g1879
atp5327
Rp5328
sg1749
g9
((lp5329
g1776
atp5330
Rp5331
sg1754
g9
((lp5332
g3086
atp5333
Rp5334
sg1759
g9
((lp5335
g1761
atp5336
Rp5337
sssg1823
(dp5338
S'S_1'
p5339
(dp5340
g1744
g9
((lp5341
g1769
atp5342
Rp5343
sg1749
g9
((lp5344
g1776
atp5345
Rp5346
sg1754
g9
((lp5347
g3014
atp5348
Rp5349
sg2246
g9
((lp5350
S'S_0'
p5351
atp5352
Rp5353
sg1759
g9
((lp5354
g1761
atp5355
Rp5356
ssS'S_0'
p5357
(dp5358
g1744
g9
((lp5359
g1769
atp5360
Rp5361
sg1749
g9
((lp5362
g1776
atp5363
Rp5364
sg1754
g9
((lp5365
g1776
atp5366
Rp5367
sg1759
g9
((lp5368
g1761
atp5369
Rp5370
sssg1840
(dp5371
S'S_1'
p5372
(dp5373
g1744
g9
((lp5374
g1879
atp5375
Rp5376
sg1749
g9
((lp5377
g1776
atp5378
Rp5379
sg1754
g9
((lp5380
g3086
atp5381
Rp5382
sg2246
g9
((lp5383
S'S_0'
p5384
atp5385
Rp5386
sg1759
g9
((lp5387
g1761
atp5388
Rp5389
ssS'S_0'
p5390
(dp5391
g1744
g9
((lp5392
g1879
atp5393
Rp5394
sg1749
g9
((lp5395
g1776
atp5396
Rp5397
sg1754
g9
((lp5398
g1886
atp5399
Rp5400
sg1759
g9
((lp5401
g1761
atp5402
Rp5403
sssa(dp5404
g1740
(dp5405
S'S_0'
p5406
(dp5407
g1744
g9
((lp5408
g1746
atp5409
Rp5410
sg1749
g9
((lp5411
g1776
atp5412
Rp5413
sg1754
g9
((lp5414
g1756
atp5415
Rp5416
sg1759
g9
((lp5417
g1761
atp5418
Rp5419
sssg1764
(dp5420
S'S_0'
p5421
(dp5422
g1744
g9
((lp5423
g1746
atp5424
Rp5425
sg1749
g9
((lp5426
g1776
atp5427
Rp5428
sg1754
g9
((lp5429
g1756
atp5430
Rp5431
sg1759
g9
((lp5432
g1761
atp5433
Rp5434
sssg1823
(dp5435
S'S_0'
p5436
(dp5437
g1744
g9
((lp5438
g1769
atp5439
Rp5440
sg1749
g9
((lp5441
g1776
atp5442
Rp5443
sg1754
g9
((lp5444
g1776
atp5445
Rp5446
sg1759
g9
((lp5447
g1761
atp5448
Rp5449
sssg1840
(dp5450
S'S_0'
p5451
(dp5452
g1744
g9
((lp5453
g1947
atp5454
Rp5455
sg1749
g9
((lp5456
g1776
atp5457
Rp5458
sg1754
g9
((lp5459
g1776
atp5460
Rp5461
sg1759
g9
((lp5462
g1761
atp5463
Rp5464
sssa(dp5465
g1740
(dp5466
S'S_0'
p5467
(dp5468
g1744
g9
((lp5469
g1769
atp5470
Rp5471
sg1749
g9
((lp5472
g1776
atp5473
Rp5474
sg1754
g9
((lp5475
g1776
atp5476
Rp5477
sg1759
g9
((lp5478
g1761
atp5479
Rp5480
sssg1764
(dp5481
S'S_0'
p5482
(dp5483
g1744
g9
((lp5484
g1947
atp5485
Rp5486
sg1749
g9
((lp5487
g1776
atp5488
Rp5489
sg1754
g9
((lp5490
g1776
atp5491
Rp5492
sg1759
g9
((lp5493
g1761
atp5494
Rp5495
sssg1823
(dp5496
S'S_0'
p5497
(dp5498
g1744
g9
((lp5499
g1947
atp5500
Rp5501
sg1749
g9
((lp5502
g1776
atp5503
Rp5504
sg1754
g9
((lp5505
g1776
atp5506
Rp5507
sg1759
g9
((lp5508
g1761
atp5509
Rp5510
sssg1840
(dp5511
S'S_0'
p5512
(dp5513
g1744
g9
((lp5514
g1746
atp5515
Rp5516
sg1749
g9
((lp5517
g1776
atp5518
Rp5519
sg1754
g9
((lp5520
g1756
atp5521
Rp5522
sg1759
g9
((lp5523
g1761
atp5524
Rp5525
sssas.